ASxxxx Linker V03.00 + NoICE + sdld,  page 1.
Hexadecimal  [32-Bits]

Area                                    Addr        Size        Decimal Bytes (Attributes)
--------------------------------        ----        ----        ------- ----- ------------
CABS                                00000000    00000000 =           0. bytes (ABS,CON,CODE)

      Value  Global                              Global Defined In Module
      -----  --------------------------------   ------------------------
C:   00000000  l_BIT_BANK                      
C:   00000000  l_CABS                          
C:   00000000  l_GSINIT1                       
C:   00000000  l_GSINIT5                       
C:   00000000  l_IABS                          
C:   00000000  l_PSEG                          
C:   00000000  l_REG_BANK_1                    
C:   00000000  l_REG_BANK_2                    
C:   00000000  l_REG_BANK_3                    
C:   00000000  l_RSEG                          
C:   00000000  l_RSEG0                         
C:   00000000  l_RSEG1                         
C:   00000000  l_XABS                          
C:   00000000  l__CODE                         
C:   00000000  s_BSEG                          
C:   00000000  s_CABS                          
C:   00000000  s_DSEG                          
C:   00000000  s_HOME                          
C:   00000000  s_IABS                          
C:   00000000  s_REG_BANK_0                    
C:   00000000  s_RSEG                          
C:   00000000  s_RSEG0                         
C:   00000000  s_RSEG1                         
C:   00000000  s_XABS                          
C:   00000001  s_PSEG                          
C:   00000001  s_XSEG                          
C:   00000002  l_BSEG_BYTES                    
C:   00000003  l_GSFINAL                       
C:   00000003  l_GSINIT0                       
C:   00000006  l_ISEG                          
C:   00000006  l_OSEG                          
C:   00000008  l_REG_BANK_0                    
C:   00000008  s_REG_BANK_1                    
C:   0000000A  l_BSEG                          
C:   0000000A  l_GSINIT2                       
C:   0000000C  l_XINIT                         
C:   0000000C  l_XISEG                         
C:   00000010  s_REG_BANK_2                    
C:   00000011  s_OSEG                          
C:   00000017  s_ISEG                          
C:   00000018  s_BIT_BANK                      
C:   00000018  s_REG_BANK_3                    
C:   00000020  s_BSEG_BYTES                    
C:   00000020  s__CODE                         
C:   00000022  l_GSINIT3                       
C:   00000027  l_GSINIT                        
C:   0000002A  l_GSINIT4                       
C:   00000050  l_XSEG                          
C:   00000051  l_HOME                          
C:   00000051  s_GSINIT0                       
ASxxxx Linker V03.00 + NoICE + sdld,  page 2.
Hexadecimal  [32-Bits]

Area                                    Addr        Size        Decimal Bytes (Attributes)
--------------------------------        ----        ----        ------- ----- ------------
CABS                                00000000    00000000 =           0. bytes (ABS,CON,CODE)

      Value  Global                              Global Defined In Module
      -----  --------------------------------   ------------------------
C:   00000051  s_XISEG                         
C:   00000054  s_GSINIT1                       
C:   00000054  s_GSINIT2                       
C:   0000005E  s_GSINIT3                       
C:   0000006F  s_SSEG                          
C:   0000007D  l_DSEG                          
C:   00000080  s_GSINIT4                       
C:   00000091  l_SSEG                          
C:   000000AA  s_GSINIT                        
C:   000000AA  s_GSINIT5                       
C:   000000D1  s_GSFINAL                       
C:   000000D4  s_CSEG                          
C:   00000100  l_IRAM                          
C:   000001D4  l_CONST                         
C:   00001ADD  l_CSEG                          
C:   00001BB1  s_CONST                         
C:   00001D85  s_XINIT                         

ASxxxx Linker V03.00 + NoICE + sdld,  page 3.
Hexadecimal  [32-Bits]

Area                                    Addr        Size        Decimal Bytes (Attributes)
--------------------------------        ----        ----        ------- ----- ------------
.  .ABS.                            00000000    00000000 =           0. bytes (ABS,CON)

      Value  Global                              Global Defined In Module
      -----  --------------------------------   ------------------------
     00000000  .__.ABS.                           _fsget1arg
     00000080  G$P0$0$0                           lab4kfix
     00000080  G$P0_0$0$0                         lab4kfix
     00000080  _P0                                lab4kfix
     00000080  _P0_0                              lab4kfix
     00000081  G$P0_1$0$0                         lab4kfix
     00000081  G$SP$0$0                           lab4kfix
     00000081  _P0_1                              lab4kfix
     00000081  _SP                                lab4kfix
     00000082  G$DPL$0$0                          lab4kfix
     00000082  G$P0_2$0$0                         lab4kfix
     00000082  _DPL                               lab4kfix
     00000082  _P0_2                              lab4kfix
     00000083  G$BUS_SCL$0$0                      lab4kfix
     00000083  G$DPH$0$0                          lab4kfix
     00000083  G$P0_3$0$0                         lab4kfix
     00000083  _BUS_SCL                           lab4kfix
     00000083  _DPH                               lab4kfix
     00000083  _P0_3                              lab4kfix
     00000084  G$P0_4$0$0                         lab4kfix
     00000084  G$P4$0$0                           lab4kfix
     00000084  _P0_4                              lab4kfix
     00000084  _P4                                lab4kfix
     00000085  G$P0_5$0$0                         lab4kfix
     00000085  G$P5$0$0                           lab4kfix
     00000085  _P0_5                              lab4kfix
     00000085  _P5                                lab4kfix
     00000086  G$P0_6$0$0                         lab4kfix
     00000086  G$P6$0$0                           lab4kfix
     00000086  _P0_6                              lab4kfix
     00000086  _P6                                lab4kfix
     00000087  G$P0_7$0$0                         lab4kfix
     00000087  G$PCON$0$0                         lab4kfix
     00000087  _P0_7                              lab4kfix
     00000087  _PCON                              lab4kfix
     00000088  G$IT0$0$0                          lab4kfix
     00000088  G$TCON$0$0                         lab4kfix
     00000088  _IT0                               lab4kfix
     00000088  _TCON                              lab4kfix
     00000089  G$IE0$0$0                          lab4kfix
     00000089  G$TMOD$0$0                         lab4kfix
     00000089  _IE0                               lab4kfix
     00000089  _TMOD                              lab4kfix
     0000008A  G$IT1$0$0                          lab4kfix
     0000008A  G$TL0$0$0                          lab4kfix
     0000008A  _IT1                               lab4kfix
     0000008A  _TL0                               lab4kfix
     0000008B  G$IE1$0$0                          lab4kfix
     0000008B  G$TL1$0$0                          lab4kfix
     0000008B  _IE1                               lab4kfix
ASxxxx Linker V03.00 + NoICE + sdld,  page 4.
Hexadecimal  [32-Bits]

Area                                    Addr        Size        Decimal Bytes (Attributes)
--------------------------------        ----        ----        ------- ----- ------------
.  .ABS.                            00000000    00000000 =           0. bytes (ABS,CON)

      Value  Global                              Global Defined In Module
      -----  --------------------------------   ------------------------
     0000008B  _TL1                               lab4kfix
     0000008C  G$TH0$0$0                          lab4kfix
     0000008C  G$TR0$0$0                          lab4kfix
     0000008C  _TH0                               lab4kfix
     0000008C  _TR0                               lab4kfix
     0000008D  G$TF0$0$0                          lab4kfix
     0000008D  G$TH1$0$0                          lab4kfix
     0000008D  _TF0                               lab4kfix
     0000008D  _TH1                               lab4kfix
     0000008E  G$CKCON$0$0                        lab4kfix
     0000008E  G$TR1$0$0                          lab4kfix
     0000008E  _CKCON                             lab4kfix
     0000008E  _TR1                               lab4kfix
     0000008F  G$PSCTL$0$0                        lab4kfix
     0000008F  G$TF1$0$0                          lab4kfix
     0000008F  _PSCTL                             lab4kfix
     0000008F  _TF1                               lab4kfix
     00000090  G$P1$0$0                           lab4kfix
     00000090  G$P1_0$0$0                         lab4kfix
     00000090  _P1                                lab4kfix
     00000090  _P1_0                              lab4kfix
     00000091  G$P1_1$0$0                         lab4kfix
     00000091  G$TMR3CN$0$0                       lab4kfix
     00000091  _P1_1                              lab4kfix
     00000091  _TMR3CN                            lab4kfix
     00000092  G$P1_2$0$0                         lab4kfix
     00000092  G$TMR3RLL$0$0                      lab4kfix
     00000092  _P1_2                              lab4kfix
     00000092  _TMR3RLL                           lab4kfix
     00000093  G$P1_3$0$0                         lab4kfix
     00000093  G$TMR3RLH$0$0                      lab4kfix
     00000093  _P1_3                              lab4kfix
     00000093  _TMR3RLH                           lab4kfix
     00000094  G$LED$0$0                          lab4kfix
     00000094  G$P1_4$0$0                         lab4kfix
     00000094  G$TMR3L$0$0                        lab4kfix
     00000094  _LED                               lab4kfix
     00000094  _P1_4                              lab4kfix
     00000094  _TMR3L                             lab4kfix
     00000095  G$P1_5$0$0                         lab4kfix
     00000095  G$TMR3H$0$0                        lab4kfix
     00000095  _P1_5                              lab4kfix
     00000095  _TMR3H                             lab4kfix
     00000096  G$P1_6$0$0                         lab4kfix
     00000096  G$P7$0$0                           lab4kfix
     00000096  _P1_6                              lab4kfix
     00000096  _P7                                lab4kfix
     00000097  G$P1_7$0$0                         lab4kfix
     00000097  _P1_7                              lab4kfix
     00000098  G$RI$0$0                           lab4kfix
     00000098  G$RI0$0$0                          lab4kfix
ASxxxx Linker V03.00 + NoICE + sdld,  page 5.
Hexadecimal  [32-Bits]

Area                                    Addr        Size        Decimal Bytes (Attributes)
--------------------------------        ----        ----        ------- ----- ------------
.  .ABS.                            00000000    00000000 =           0. bytes (ABS,CON)

      Value  Global                              Global Defined In Module
      -----  --------------------------------   ------------------------
     00000098  G$SCON$0$0                         lab4kfix
     00000098  G$SCON0$0$0                        lab4kfix
     00000098  _RI                                lab4kfix
     00000098  _RI0                               lab4kfix
     00000098  _SCON                              lab4kfix
     00000098  _SCON0                             lab4kfix
     00000099  G$SBUF$0$0                         lab4kfix
     00000099  G$SBUF0$0$0                        lab4kfix
     00000099  G$TI$0$0                           lab4kfix
     00000099  G$TI0$0$0                          lab4kfix
     00000099  _SBUF                              lab4kfix
     00000099  _SBUF0                             lab4kfix
     00000099  _TI                                lab4kfix
     00000099  _TI0                               lab4kfix
     0000009A  G$RB8$0$0                          lab4kfix
     0000009A  G$RB80$0$0                         lab4kfix
     0000009A  G$SPI0CFG$0$0                      lab4kfix
     0000009A  _RB8                               lab4kfix
     0000009A  _RB80                              lab4kfix
     0000009A  _SPI0CFG                           lab4kfix
     0000009B  G$SPI0DAT$0$0                      lab4kfix
     0000009B  G$TB8$0$0                          lab4kfix
     0000009B  G$TB80$0$0                         lab4kfix
     0000009B  _SPI0DAT                           lab4kfix
     0000009B  _TB8                               lab4kfix
     0000009B  _TB80                              lab4kfix
     0000009C  G$ADC1$0$0                         lab4kfix
     0000009C  G$REN$0$0                          lab4kfix
     0000009C  G$REN0$0$0                         lab4kfix
     0000009C  _ADC1                              lab4kfix
     0000009C  _REN                               lab4kfix
     0000009C  _REN0                              lab4kfix
     0000009D  G$MCE0$0$0                         lab4kfix
     0000009D  G$SM2$0$0                          lab4kfix
     0000009D  G$SM20$0$0                         lab4kfix
     0000009D  G$SPI0CKR$0$0                      lab4kfix
     0000009D  _MCE0                              lab4kfix
     0000009D  _SM2                               lab4kfix
     0000009D  _SM20                              lab4kfix
     0000009D  _SPI0CKR                           lab4kfix
     0000009E  G$CPT0CN$0$0                       lab4kfix
     0000009E  G$SM1$0$0                          lab4kfix
     0000009E  G$SM10$0$0                         lab4kfix
     0000009E  _CPT0CN                            lab4kfix
     0000009E  _SM1                               lab4kfix
     0000009E  _SM10                              lab4kfix
     0000009F  G$CPT1CN$0$0                       lab4kfix
     0000009F  G$S0MODE$0$0                       lab4kfix
     0000009F  G$SM0$0$0                          lab4kfix
     0000009F  G$SM00$0$0                         lab4kfix
     0000009F  _CPT1CN                            lab4kfix
ASxxxx Linker V03.00 + NoICE + sdld,  page 6.
Hexadecimal  [32-Bits]

Area                                    Addr        Size        Decimal Bytes (Attributes)
--------------------------------        ----        ----        ------- ----- ------------
.  .ABS.                            00000000    00000000 =           0. bytes (ABS,CON)

      Value  Global                              Global Defined In Module
      -----  --------------------------------   ------------------------
     0000009F  _S0MODE                            lab4kfix
     0000009F  _SM0                               lab4kfix
     0000009F  _SM00                              lab4kfix
     000000A0  G$P2$0$0                           lab4kfix
     000000A0  G$P2_0$0$0                         lab4kfix
     000000A0  _P2                                lab4kfix
     000000A0  _P2_0                              lab4kfix
     000000A1  G$EMI0TC$0$0                       lab4kfix
     000000A1  G$P2_1$0$0                         lab4kfix
     000000A1  _EMI0TC                            lab4kfix
     000000A1  _P2_1                              lab4kfix
     000000A2  G$P2_2$0$0                         lab4kfix
     000000A2  _P2_2                              lab4kfix
     000000A3  G$EMI0CF$0$0                       lab4kfix
     000000A3  G$P2_3$0$0                         lab4kfix
     000000A3  _EMI0CF                            lab4kfix
     000000A3  _P2_3                              lab4kfix
     000000A4  G$P0MDOUT$0$0                      lab4kfix
     000000A4  G$P2_4$0$0                         lab4kfix
     000000A4  G$PRT0CF$0$0                       lab4kfix
     000000A4  _P0MDOUT                           lab4kfix
     000000A4  _P2_4                              lab4kfix
     000000A4  _PRT0CF                            lab4kfix
     000000A5  G$P1MDOUT$0$0                      lab4kfix
     000000A5  G$P2_5$0$0                         lab4kfix
     000000A5  G$PRT1CF$0$0                       lab4kfix
     000000A5  _P1MDOUT                           lab4kfix
     000000A5  _P2_5                              lab4kfix
     000000A5  _PRT1CF                            lab4kfix
     000000A6  G$P2MDOUT$0$0                      lab4kfix
     000000A6  G$P2_6$0$0                         lab4kfix
     000000A6  G$PRT2CF$0$0                       lab4kfix
     000000A6  _P2MDOUT                           lab4kfix
     000000A6  _P2_6                              lab4kfix
     000000A6  _PRT2CF                            lab4kfix
     000000A7  G$P2_7$0$0                         lab4kfix
     000000A7  G$P3MDOUT$0$0                      lab4kfix
     000000A7  G$PRT3CF$0$0                       lab4kfix
     000000A7  _P2_7                              lab4kfix
     000000A7  _P3MDOUT                           lab4kfix
     000000A7  _PRT3CF                            lab4kfix
     000000A8  G$EX0$0$0                          lab4kfix
     000000A8  G$IE$0$0                           lab4kfix
     000000A8  _EX0                               lab4kfix
     000000A8  _IE                                lab4kfix
     000000A9  G$ET0$0$0                          lab4kfix
     000000A9  G$SADDR0$0$0                       lab4kfix
     000000A9  _ET0                               lab4kfix
     000000A9  _SADDR0                            lab4kfix
     000000AA  G$ADC1CN$0$0                       lab4kfix
     000000AA  G$EX1$0$0                          lab4kfix
ASxxxx Linker V03.00 + NoICE + sdld,  page 7.
Hexadecimal  [32-Bits]

Area                                    Addr        Size        Decimal Bytes (Attributes)
--------------------------------        ----        ----        ------- ----- ------------
.  .ABS.                            00000000    00000000 =           0. bytes (ABS,CON)

      Value  Global                              Global Defined In Module
      -----  --------------------------------   ------------------------
     000000AA  _ADC1CN                            lab4kfix
     000000AA  _EX1                               lab4kfix
     000000AB  G$ADC1CF$0$0                       lab4kfix
     000000AB  G$ET1$0$0                          lab4kfix
     000000AB  _ADC1CF                            lab4kfix
     000000AB  _ET1                               lab4kfix
     000000AC  G$AMX1SL$0$0                       lab4kfix
     000000AC  G$ES$0$0                           lab4kfix
     000000AC  G$ES0$0$0                          lab4kfix
     000000AC  _AMX1SL                            lab4kfix
     000000AC  _ES                                lab4kfix
     000000AC  _ES0                               lab4kfix
     000000AD  G$ET2$0$0                          lab4kfix
     000000AD  G$P3IF$0$0                         lab4kfix
     000000AD  _ET2                               lab4kfix
     000000AD  _P3IF                              lab4kfix
     000000AE  G$SADEN1$0$0                       lab4kfix
     000000AE  _SADEN1                            lab4kfix
     000000AF  G$EA$0$0                           lab4kfix
     000000AF  G$EMI0CN$0$0                       lab4kfix
     000000AF  G$_XPAGE$0$0                       lab4kfix
     000000AF  _EA                                lab4kfix
     000000AF  _EMI0CN                            lab4kfix
     000000AF  __XPAGE                            lab4kfix
     000000B0  G$P3$0$0                           lab4kfix
     000000B0  G$P3_0$0$0                         lab4kfix
     000000B0  _P3                                lab4kfix
     000000B0  _P3_0                              lab4kfix
     000000B1  G$OSCXCN$0$0                       lab4kfix
     000000B1  G$P3_1$0$0                         lab4kfix
     000000B1  _OSCXCN                            lab4kfix
     000000B1  _P3_1                              lab4kfix
     000000B2  G$OSCICN$0$0                       lab4kfix
     000000B2  G$P3_2$0$0                         lab4kfix
     000000B2  _OSCICN                            lab4kfix
     000000B2  _P3_2                              lab4kfix
     000000B3  G$P3_3$0$0                         lab4kfix
     000000B3  _P3_3                              lab4kfix
     000000B4  G$P3_4$0$0                         lab4kfix
     000000B4  _P3_4                              lab4kfix
     000000B5  G$P3_5$0$0                         lab4kfix
     000000B5  G$P74OUT$0$0                       lab4kfix
     000000B5  _P3_5                              lab4kfix
     000000B5  _P74OUT                            lab4kfix
     000000B6  G$FLSCL$0$0                        lab4kfix
     000000B6  G$P3_6$0$0                         lab4kfix
     000000B6  _FLSCL                             lab4kfix
     000000B6  _P3_6                              lab4kfix
     000000B7  G$FLACL$0$0                        lab4kfix
     000000B7  G$P3_7$0$0                         lab4kfix
     000000B7  G$mSS$0$0                          lab4kfix
ASxxxx Linker V03.00 + NoICE + sdld,  page 8.
Hexadecimal  [32-Bits]

Area                                    Addr        Size        Decimal Bytes (Attributes)
--------------------------------        ----        ----        ------- ----- ------------
.  .ABS.                            00000000    00000000 =           0. bytes (ABS,CON)

      Value  Global                              Global Defined In Module
      -----  --------------------------------   ------------------------
     000000B7  _FLACL                             lab4kfix
     000000B7  _P3_7                              lab4kfix
     000000B7  _mSS                               lab4kfix
     000000B8  G$IP$0$0                           lab4kfix
     000000B8  G$PX0$0$0                          lab4kfix
     000000B8  _IP                                lab4kfix
     000000B8  _PX0                               lab4kfix
     000000B9  G$PT0$0$0                          lab4kfix
     000000B9  G$SADEN0$0$0                       lab4kfix
     000000B9  _PT0                               lab4kfix
     000000B9  _SADEN0                            lab4kfix
     000000BA  G$AMX0CF$0$0                       lab4kfix
     000000BA  G$PX1$0$0                          lab4kfix
     000000BA  _AMX0CF                            lab4kfix
     000000BA  _PX1                               lab4kfix
     000000BB  G$AMX0SL$0$0                       lab4kfix
     000000BB  G$PT1$0$0                          lab4kfix
     000000BB  _AMX0SL                            lab4kfix
     000000BB  _PT1                               lab4kfix
     000000BC  G$ADC0CF$0$0                       lab4kfix
     000000BC  G$PS$0$0                           lab4kfix
     000000BC  G$PS0$0$0                          lab4kfix
     000000BC  _ADC0CF                            lab4kfix
     000000BC  _PS                                lab4kfix
     000000BC  _PS0                               lab4kfix
     000000BD  G$P1MDIN$0$0                       lab4kfix
     000000BD  G$PT2$0$0                          lab4kfix
     000000BD  _P1MDIN                            lab4kfix
     000000BD  _PT2                               lab4kfix
     000000BE  G$ADC0L$0$0                        lab4kfix
     000000BE  _ADC0L                             lab4kfix
     000000BF  G$ADC0H$0$0                        lab4kfix
     000000BF  _ADC0H                             lab4kfix
     000000C0  G$BUS_TOE$0$0                      lab4kfix
     000000C0  G$SMB0CN$0$0                       lab4kfix
     000000C0  G$SMBTOE$0$0                       lab4kfix
     000000C0  _BUS_TOE                           lab4kfix
     000000C0  _SMB0CN                            lab4kfix
     000000C0  _SMBTOE                            lab4kfix
     000000C1  G$BUS_FTE$0$0                      lab4kfix
     000000C1  G$SMB0STA$0$0                      lab4kfix
     000000C1  G$SMBFTE$0$0                       lab4kfix
     000000C1  _BUS_FTE                           lab4kfix
     000000C1  _SMB0STA                           lab4kfix
     000000C1  _SMBFTE                            lab4kfix
     000000C2  G$AA$0$0                           lab4kfix
     000000C2  G$BUS_AA$0$0                       lab4kfix
     000000C2  G$SMB0DAT$0$0                      lab4kfix
     000000C2  _AA                                lab4kfix
     000000C2  _BUS_AA                            lab4kfix
     000000C2  _SMB0DAT                           lab4kfix
ASxxxx Linker V03.00 + NoICE + sdld,  page 9.
Hexadecimal  [32-Bits]

Area                                    Addr        Size        Decimal Bytes (Attributes)
--------------------------------        ----        ----        ------- ----- ------------
.  .ABS.                            00000000    00000000 =           0. bytes (ABS,CON)

      Value  Global                              Global Defined In Module
      -----  --------------------------------   ------------------------
     000000C3  G$BUS_INT$0$0                      lab4kfix
     000000C3  G$SI$0$0                           lab4kfix
     000000C3  G$SMB0ADR$0$0                      lab4kfix
     000000C3  _BUS_INT                           lab4kfix
     000000C3  _SI                                lab4kfix
     000000C3  _SMB0ADR                           lab4kfix
     000000C4  G$ADC0GTL$0$0                      lab4kfix
     000000C4  G$BUS_STOP$0$0                     lab4kfix
     000000C4  G$STO$0$0                          lab4kfix
     000000C4  _ADC0GTL                           lab4kfix
     000000C4  _BUS_STOP                          lab4kfix
     000000C4  _STO                               lab4kfix
     000000C5  G$ADC0GTH$0$0                      lab4kfix
     000000C5  G$BUS_START$0$0                    lab4kfix
     000000C5  G$STA$0$0                          lab4kfix
     000000C5  _ADC0GTH                           lab4kfix
     000000C5  _BUS_START                         lab4kfix
     000000C5  _STA                               lab4kfix
     000000C6  G$ADC0LTL$0$0                      lab4kfix
     000000C6  G$BUS_EN$0$0                       lab4kfix
     000000C6  G$ENSMB$0$0                        lab4kfix
     000000C6  _ADC0LTL                           lab4kfix
     000000C6  _BUS_EN                            lab4kfix
     000000C6  _ENSMB                             lab4kfix
     000000C7  G$ADC0LTH$0$0                      lab4kfix
     000000C7  G$BUSY$0$0                         lab4kfix
     000000C7  G$BUS_BUSY$0$0                     lab4kfix
     000000C7  _ADC0LTH                           lab4kfix
     000000C7  _BUSY                              lab4kfix
     000000C7  _BUS_BUSY                          lab4kfix
     000000C8  G$CPRL2$0$0                        lab4kfix
     000000C8  G$T2CON$0$0                        lab4kfix
     000000C8  _CPRL2                             lab4kfix
     000000C8  _T2CON                             lab4kfix
     000000C9  G$CT2$0$0                          lab4kfix
     000000C9  G$T4CON$0$0                        lab4kfix
     000000C9  _CT2                               lab4kfix
     000000C9  _T4CON                             lab4kfix
     000000CA  G$RCAP2L$0$0                       lab4kfix
     000000CA  G$TR2$0$0                          lab4kfix
     000000CA  _RCAP2L                            lab4kfix
     000000CA  _TR2                               lab4kfix
     000000CB  G$EXEN2$0$0                        lab4kfix
     000000CB  G$RCAP2H$0$0                       lab4kfix
     000000CB  _EXEN2                             lab4kfix
     000000CB  _RCAP2H                            lab4kfix
     000000CC  G$TCLK$0$0                         lab4kfix
     000000CC  G$TL2$0$0                          lab4kfix
     000000CC  _TCLK                              lab4kfix
     000000CC  _TL2                               lab4kfix
     000000CD  G$RCLK$0$0                         lab4kfix
ASxxxx Linker V03.00 + NoICE + sdld,  page 10.
Hexadecimal  [32-Bits]

Area                                    Addr        Size        Decimal Bytes (Attributes)
--------------------------------        ----        ----        ------- ----- ------------
.  .ABS.                            00000000    00000000 =           0. bytes (ABS,CON)

      Value  Global                              Global Defined In Module
      -----  --------------------------------   ------------------------
     000000CD  G$TH2$0$0                          lab4kfix
     000000CD  _RCLK                              lab4kfix
     000000CD  _TH2                               lab4kfix
     000000CE  G$EXF2$0$0                         lab4kfix
     000000CE  _EXF2                              lab4kfix
     000000CF  G$SMB0CR$0$0                       lab4kfix
     000000CF  G$TF2$0$0                          lab4kfix
     000000CF  _SMB0CR                            lab4kfix
     000000CF  _TF2                               lab4kfix
     000000D0  G$P$0$0                            lab4kfix
     000000D0  G$PSW$0$0                          lab4kfix
     000000D0  _P                                 lab4kfix
     000000D0  _PSW                               lab4kfix
     000000D1  G$F1$0$0                           lab4kfix
     000000D1  G$REF0CN$0$0                       lab4kfix
     000000D1  _F1                                lab4kfix
     000000D1  _REF0CN                            lab4kfix
     000000D2  G$DAC0L$0$0                        lab4kfix
     000000D2  G$OV$0$0                           lab4kfix
     000000D2  _DAC0L                             lab4kfix
     000000D2  _OV                                lab4kfix
     000000D3  G$DAC0H$0$0                        lab4kfix
     000000D3  G$RS0$0$0                          lab4kfix
     000000D3  _DAC0H                             lab4kfix
     000000D3  _RS0                               lab4kfix
     000000D4  G$DAC0CN$0$0                       lab4kfix
     000000D4  G$RS1$0$0                          lab4kfix
     000000D4  _DAC0CN                            lab4kfix
     000000D4  _RS1                               lab4kfix
     000000D5  G$DAC1L$0$0                        lab4kfix
     000000D5  G$F0$0$0                           lab4kfix
     000000D5  _DAC1L                             lab4kfix
     000000D5  _F0                                lab4kfix
     000000D6  G$AC$0$0                           lab4kfix
     000000D6  G$DAC1H$0$0                        lab4kfix
     000000D6  _AC                                lab4kfix
     000000D6  _DAC1H                             lab4kfix
     000000D7  G$CY$0$0                           lab4kfix
     000000D7  G$DAC1CN$0$0                       lab4kfix
     000000D7  _CY                                lab4kfix
     000000D7  _DAC1CN                            lab4kfix
     000000D8  G$CCF0$0$0                         lab4kfix
     000000D8  G$PCA0CN$0$0                       lab4kfix
     000000D8  _CCF0                              lab4kfix
     000000D8  _PCA0CN                            lab4kfix
     000000D9  G$CCF1$0$0                         lab4kfix
     000000D9  G$PCA0MD$0$0                       lab4kfix
     000000D9  _CCF1                              lab4kfix
     000000D9  _PCA0MD                            lab4kfix
     000000DA  G$CCF2$0$0                         lab4kfix
     000000DA  G$PCA0CPM0$0$0                     lab4kfix
ASxxxx Linker V03.00 + NoICE + sdld,  page 11.
Hexadecimal  [32-Bits]

Area                                    Addr        Size        Decimal Bytes (Attributes)
--------------------------------        ----        ----        ------- ----- ------------
.  .ABS.                            00000000    00000000 =           0. bytes (ABS,CON)

      Value  Global                              Global Defined In Module
      -----  --------------------------------   ------------------------
     000000DA  _CCF2                              lab4kfix
     000000DA  _PCA0CPM0                          lab4kfix
     000000DB  G$CCF3$0$0                         lab4kfix
     000000DB  G$PCA0CPM1$0$0                     lab4kfix
     000000DB  _CCF3                              lab4kfix
     000000DB  _PCA0CPM1                          lab4kfix
     000000DC  G$CCF4$0$0                         lab4kfix
     000000DC  G$PCA0CPM2$0$0                     lab4kfix
     000000DC  _CCF4                              lab4kfix
     000000DC  _PCA0CPM2                          lab4kfix
     000000DD  G$PCA0CPM3$0$0                     lab4kfix
     000000DD  _PCA0CPM3                          lab4kfix
     000000DE  G$CR$0$0                           lab4kfix
     000000DE  G$PCA0CPM4$0$0                     lab4kfix
     000000DE  _CR                                lab4kfix
     000000DE  _PCA0CPM4                          lab4kfix
     000000DF  G$CF$0$0                           lab4kfix
     000000DF  _CF                                lab4kfix
     000000E0  G$ACC$0$0                          lab4kfix
     000000E0  _ACC                               lab4kfix
     000000E1  G$XBR0$0$0                         lab4kfix
     000000E1  _XBR0                              lab4kfix
     000000E2  G$XBR1$0$0                         lab4kfix
     000000E2  _XBR1                              lab4kfix
     000000E3  G$XBR2$0$0                         lab4kfix
     000000E3  _XBR2                              lab4kfix
     000000E4  G$RCAP4L$0$0                       lab4kfix
     000000E4  _RCAP4L                            lab4kfix
     000000E5  G$RCAP4H$0$0                       lab4kfix
     000000E5  _RCAP4H                            lab4kfix
     000000E6  G$EIE1$0$0                         lab4kfix
     000000E6  _EIE1                              lab4kfix
     000000E7  G$EIE2$0$0                         lab4kfix
     000000E7  _EIE2                              lab4kfix
     000000E8  G$AD0LJST$0$0                      lab4kfix
     000000E8  G$ADC0CN$0$0                       lab4kfix
     000000E8  G$ADLJST$0$0                       lab4kfix
     000000E8  _AD0LJST                           lab4kfix
     000000E8  _ADC0CN                            lab4kfix
     000000E8  _ADLJST                            lab4kfix
     000000E9  G$AD0WINT$0$0                      lab4kfix
     000000E9  G$ADWINT$0$0                       lab4kfix
     000000E9  G$PCA0L$0$0                        lab4kfix
     000000E9  _AD0WINT                           lab4kfix
     000000E9  _ADWINT                            lab4kfix
     000000E9  _PCA0L                             lab4kfix
     000000EA  G$AD0CM0$0$0                       lab4kfix
     000000EA  G$ADSTM0$0$0                       lab4kfix
     000000EA  G$PCA0CPL0$0$0                     lab4kfix
     000000EA  _AD0CM0                            lab4kfix
     000000EA  _ADSTM0                            lab4kfix
ASxxxx Linker V03.00 + NoICE + sdld,  page 12.
Hexadecimal  [32-Bits]

Area                                    Addr        Size        Decimal Bytes (Attributes)
--------------------------------        ----        ----        ------- ----- ------------
.  .ABS.                            00000000    00000000 =           0. bytes (ABS,CON)

      Value  Global                              Global Defined In Module
      -----  --------------------------------   ------------------------
     000000EA  _PCA0CPL0                          lab4kfix
     000000EB  G$AD0CM1$0$0                       lab4kfix
     000000EB  G$ADSTM1$0$0                       lab4kfix
     000000EB  G$PCA0CPL1$0$0                     lab4kfix
     000000EB  _AD0CM1                            lab4kfix
     000000EB  _ADSTM1                            lab4kfix
     000000EB  _PCA0CPL1                          lab4kfix
     000000EC  G$AD0BUSY$0$0                      lab4kfix
     000000EC  G$ADBUSY$0$0                       lab4kfix
     000000EC  G$PCA0CPL2$0$0                     lab4kfix
     000000EC  _AD0BUSY                           lab4kfix
     000000EC  _ADBUSY                            lab4kfix
     000000EC  _PCA0CPL2                          lab4kfix
     000000ED  G$AD0INT$0$0                       lab4kfix
     000000ED  G$ADCINT$0$0                       lab4kfix
     000000ED  G$PCA0CPL3$0$0                     lab4kfix
     000000ED  _AD0INT                            lab4kfix
     000000ED  _ADCINT                            lab4kfix
     000000ED  _PCA0CPL3                          lab4kfix
     000000EE  G$AD0TM$0$0                        lab4kfix
     000000EE  G$ADCTM$0$0                        lab4kfix
     000000EE  G$PCA0CPL4$0$0                     lab4kfix
     000000EE  _AD0TM                             lab4kfix
     000000EE  _ADCTM                             lab4kfix
     000000EE  _PCA0CPL4                          lab4kfix
     000000EF  G$AD0EN$0$0                        lab4kfix
     000000EF  G$ADCEN$0$0                        lab4kfix
     000000EF  G$RSTSRC$0$0                       lab4kfix
     000000EF  _AD0EN                             lab4kfix
     000000EF  _ADCEN                             lab4kfix
     000000EF  _RSTSRC                            lab4kfix
     000000F0  G$B$0$0                            lab4kfix
     000000F0  _B                                 lab4kfix
     000000F1  G$SCON1$0$0                        lab4kfix
     000000F1  _SCON1                             lab4kfix
     000000F2  G$SBUF1$0$0                        lab4kfix
     000000F2  _SBUF1                             lab4kfix
     000000F3  G$SADDR1$0$0                       lab4kfix
     000000F3  _SADDR1                            lab4kfix
     000000F4  G$TL4$0$0                          lab4kfix
     000000F4  _TL4                               lab4kfix
     000000F5  G$TH4$0$0                          lab4kfix
     000000F5  _B_5                               _gptrget
     000000F5  _TH4                               lab4kfix
     000000F6  G$EIP1$0$0                         lab4kfix
     000000F6  _B_6                               _gptrget
     000000F6  _EIP1                              lab4kfix
     000000F7  G$EIP2$0$0                         lab4kfix
     000000F7  _B_7                               _gptrget
     000000F7  _EIP2                              lab4kfix
     000000F8  G$SPI0CN$0$0                       lab4kfix
ASxxxx Linker V03.00 + NoICE + sdld,  page 13.
Hexadecimal  [32-Bits]

Area                                    Addr        Size        Decimal Bytes (Attributes)
--------------------------------        ----        ----        ------- ----- ------------
.  .ABS.                            00000000    00000000 =           0. bytes (ABS,CON)

      Value  Global                              Global Defined In Module
      -----  --------------------------------   ------------------------
     000000F8  G$SPIEN$0$0                        lab4kfix
     000000F8  _SPI0CN                            lab4kfix
     000000F8  _SPIEN                             lab4kfix
     000000F9  G$MSTEN$0$0                        lab4kfix
     000000F9  G$PCA0H$0$0                        lab4kfix
     000000F9  _MSTEN                             lab4kfix
     000000F9  _PCA0H                             lab4kfix
     000000FA  G$PCA0CPH0$0$0                     lab4kfix
     000000FA  G$SLVSEL$0$0                       lab4kfix
     000000FA  _PCA0CPH0                          lab4kfix
     000000FA  _SLVSEL                            lab4kfix
     000000FB  G$PCA0CPH1$0$0                     lab4kfix
     000000FB  G$TXBSY$0$0                        lab4kfix
     000000FB  _PCA0CPH1                          lab4kfix
     000000FB  _TXBSY                             lab4kfix
     000000FC  G$PCA0CPH2$0$0                     lab4kfix
     000000FC  G$RXOVRN$0$0                       lab4kfix
     000000FC  _PCA0CPH2                          lab4kfix
     000000FC  _RXOVRN                            lab4kfix
     000000FD  G$MODF$0$0                         lab4kfix
     000000FD  G$PCA0CPH3$0$0                     lab4kfix
     000000FD  _MODF                              lab4kfix
     000000FD  _PCA0CPH3                          lab4kfix
     000000FE  G$PCA0CPH4$0$0                     lab4kfix
     000000FE  G$WCOL$0$0                         lab4kfix
     000000FE  _PCA0CPH4                          lab4kfix
     000000FE  _WCOL                              lab4kfix
     000000FF  G$SPIF$0$0                         lab4kfix
     000000FF  G$WDTCN$0$0                        lab4kfix
     000000FF  _SPIF                              lab4kfix
     000000FF  _WDTCN                             lab4kfix
     00008C8A  G$TMR0$0$0                         lab4kfix
     00008C8A  _TMR0                              lab4kfix
     00008D8B  G$TMR1$0$0                         lab4kfix
     00008D8B  _TMR1                              lab4kfix
     00009392  G$TMR3RL$0$0                       lab4kfix
     00009392  _TMR3RL                            lab4kfix
     00009594  G$TMR3$0$0                         lab4kfix
     00009594  _TMR3                              lab4kfix
     0000BFBE  G$ADC0$0$0                         lab4kfix
     0000BFBE  _ADC0                              lab4kfix
     0000C5C4  G$ADC0GT$0$0                       lab4kfix
     0000C5C4  _ADC0GT                            lab4kfix
     0000C7C6  G$ADC0LT$0$0                       lab4kfix
     0000C7C6  _ADC0LT                            lab4kfix
     0000CBCA  G$RCAP2$0$0                        lab4kfix
     0000CBCA  _RCAP2                             lab4kfix
     0000CDCC  G$TMR2$0$0                         lab4kfix
     0000CDCC  _TMR2                              lab4kfix
     0000D3D2  G$DAC0$0$0                         lab4kfix
     0000D3D2  _DAC0                              lab4kfix
ASxxxx Linker V03.00 + NoICE + sdld,  page 14.
Hexadecimal  [32-Bits]

Area                                    Addr        Size        Decimal Bytes (Attributes)
--------------------------------        ----        ----        ------- ----- ------------
.  .ABS.                            00000000    00000000 =           0. bytes (ABS,CON)

      Value  Global                              Global Defined In Module
      -----  --------------------------------   ------------------------
     0000D6D5  G$DAC1$0$0                         lab4kfix
     0000D6D5  _DAC1                              lab4kfix
     0000E5E4  G$RCAP4$0$0                        lab4kfix
     0000E5E4  _RCAP4                             lab4kfix
     0000F5F4  G$TMR4$0$0                         lab4kfix
     0000F5F4  _TMR4                              lab4kfix
     0000F9E9  G$PCA0$0$0                         lab4kfix
     0000F9E9  _PCA0                              lab4kfix
     0000FAEA  G$PCA0CP0$0$0                      lab4kfix
     0000FAEA  _PCA0CP0                           lab4kfix
     0000FBEB  G$PCA0CP1$0$0                      lab4kfix
     0000FBEB  _PCA0CP1                           lab4kfix
     0000FCEC  G$PCA0CP2$0$0                      lab4kfix
     0000FCEC  _PCA0CP2                           lab4kfix
     0000FDED  G$PCA0CP3$0$0                      lab4kfix
     0000FDED  _PCA0CP3                           lab4kfix
     0000FEEE  G$PCA0CP4$0$0                      lab4kfix
     0000FEEE  _PCA0CP4                           lab4kfix

ASxxxx Linker V03.00 + NoICE + sdld,  page 15.
Hexadecimal  [32-Bits]

Area                                    Addr        Size        Decimal Bytes (Attributes)
--------------------------------        ----        ----        ------- ----- ------------
BSEG_BYTES                          00000020    00000002 =           2. bytes (REL,CON)

      Value  Global                              Global Defined In Module
      -----  --------------------------------   ------------------------
ASxxxx Linker V03.00 + NoICE + sdld,  page 16.
Hexadecimal  [32-Bits]

Area                                    Addr        Size        Decimal Bytes (Attributes)
--------------------------------        ----        ----        ------- ----- ------------
REG_BANK_0                          00000000    00000008 =           8. bytes (REL,OVR)

      Value  Global                              Global Defined In Module
      -----  --------------------------------   ------------------------
ASxxxx Linker V03.00 + NoICE + sdld,  page 17.
Hexadecimal  [32-Bits]

Area                                    Addr        Size        Decimal Bytes (Attributes)
--------------------------------        ----        ----        ------- ----- ------------
DSEG                                00000000    0000007D =         125. bytes (REL,CON)

      Value  Global                              Global Defined In Module
      -----  --------------------------------   ------------------------
     00000008  _vsprintf_PARM_2                   sprintf
     0000000B  _vsprintf_PARM_3                   sprintf
     0000000F  _bp                                _bp
     00000010  _vprintf_PARM_2                    vprintf
     00000022  G$Data2$0$0                        lab4kfix
     00000022  _Data2                             lab4kfix
     00000025  Llab4kfix.aligned_alloc$size$1$3   lab4kfix
     00000025  _aligned_alloc_PARM_2              lab4kfix
     00000027  Llab4kfix.lcd_clear$NumBytes$1$8   lab4kfix
     00000028  Llab4kfix.lcd_clear$Cmd$1$85       lab4kfix
     0000002A  Llab4kfix.read_keypad$Data$1$86    lab4kfix
     0000002C  Llab4kfix.i2c_write_data$start_r   lab4kfix
     0000002C  _i2c_write_data_PARM_2             lab4kfix
     0000002D  Llab4kfix.i2c_write_data$buffer$   lab4kfix
     0000002D  _i2c_write_data_PARM_3             lab4kfix
     00000030  Llab4kfix.i2c_write_data$num_byt   lab4kfix
     00000030  _i2c_write_data_PARM_4             lab4kfix
     00000031  Llab4kfix.i2c_read_data$start_re   lab4kfix
     00000031  _i2c_read_data_PARM_2              lab4kfix
     00000032  Llab4kfix.i2c_read_data$buffer$1   lab4kfix
     00000032  _i2c_read_data_PARM_3              lab4kfix
     00000035  Llab4kfix.i2c_read_data$num_byte   lab4kfix
     00000035  _i2c_read_data_PARM_4              lab4kfix
     00000036  G$Counts$0$0                       lab4kfix
     00000036  _Counts                            lab4kfix
     00000038  G$sPW$0$0                          lab4kfix
     00000038  _sPW                               lab4kfix
     0000003A  G$mPW$0$0                          lab4kfix
     0000003A  _mPW                               lab4kfix
     0000003C  G$dist$0$0                         lab4kfix
     0000003C  _dist                              lab4kfix
     0000003D  G$r_Data$0$0                       lab4kfix
     0000003D  _r_Data                            lab4kfix
     0000003F  G$range$0$0                        lab4kfix
     0000003F  _range                             lab4kfix
     00000041  G$r_addr$0$0                       lab4kfix
     00000041  _r_addr                            lab4kfix
     00000042  G$r_Counts$0$0                     lab4kfix
     00000042  _r_Counts                          lab4kfix
     00000043  G$new_range$0$0                    lab4kfix
     00000043  _new_range                         lab4kfix
     00000044  G$c_addr$0$0                       lab4kfix
     00000044  _c_addr                            lab4kfix
     00000045  G$c_Data$0$0                       lab4kfix
     00000045  _c_Data                            lab4kfix
     00000047  G$heading$0$0                      lab4kfix
     00000047  _heading                           lab4kfix
     00000049  G$h_Counts$0$0                     lab4kfix
     00000049  _h_Counts                          lab4kfix
     0000004A  G$new_heading$0$0                  lab4kfix
ASxxxx Linker V03.00 + NoICE + sdld,  page 18.
Hexadecimal  [32-Bits]

Area                                    Addr        Size        Decimal Bytes (Attributes)
--------------------------------        ----        ----        ------- ----- ------------
DSEG                                00000000    0000007D =         125. bytes (REL,CON)

      Value  Global                              Global Defined In Module
      -----  --------------------------------   ------------------------
     0000004A  _new_heading                       lab4kfix
     0000004B  G$desired_heading$0$0              lab4kfix
     0000004B  _desired_heading                   lab4kfix
     0000004D  G$error$0$0                        lab4kfix
     0000004D  _error                             lab4kfix
     0000004F  G$adc_value$0$0                    lab4kfix
     0000004F  _adc_value                         lab4kfix
     00000050  G$voltage$0$0                      lab4kfix
     00000050  _voltage                           lab4kfix
     00000052  G$lcd_count$0$0                    lab4kfix
     00000052  _lcd_count                         lab4kfix
     00000054  G$new_lcd$0$0                      lab4kfix
     00000054  _new_lcd                           lab4kfix
     00000061  __print_format_PARM_2              printf_large
     00000064  __print_format_PARM_3              printf_large
     00000067  __print_format_PARM_4              printf_large
ASxxxx Linker V03.00 + NoICE + sdld,  page 19.
Hexadecimal  [32-Bits]

Area                                    Addr        Size        Decimal Bytes (Attributes)
--------------------------------        ----        ----        ------- ----- ------------
OSEG                                00000011    00000006 =           6. bytes (REL,OVR)

      Value  Global                              Global Defined In Module
      -----  --------------------------------   ------------------------
     00000011  __gptrput_PARM_2                   _gptrput
     00000011  __mulint_PARM_2                    _mulint

ASxxxx Linker V03.00 + NoICE + sdld,  page 20.
Hexadecimal  [32-Bits]

Area                                    Addr        Size        Decimal Bytes (Attributes)
--------------------------------        ----        ----        ------- ----- ------------
ISEG                                00000017    00000006 =           6. bytes (REL,CON)

      Value  Global                              Global Defined In Module
      -----  --------------------------------   ------------------------
ASxxxx Linker V03.00 + NoICE + sdld,  page 21.
Hexadecimal  [32-Bits]

Area                                    Addr        Size        Decimal Bytes (Attributes)
--------------------------------        ----        ----        ------- ----- ------------
SSEG                                0000006F    00000091 =         145. bytes (REL,OVR)

      Value  Global                              Global Defined In Module
      -----  --------------------------------   ------------------------
     0000006F  __start__stack                     lab4kfix

ASxxxx Linker V03.00 + NoICE + sdld,  page 22.
Hexadecimal  [32-Bits]

Area                                    Addr        Size        Decimal Bytes (Attributes)
--------------------------------        ----        ----        ------- ----- ------------
XSEG                                00000001    00000050 =          80. bytes (REL,CON,XDATA)

      Value  Global                              Global Defined In Module
      -----  --------------------------------   ------------------------
D:   00000001  Llab4kfix.lcd_print$text$1$81      lab4kfix

ASxxxx Linker V03.00 + NoICE + sdld,  page 23.
Hexadecimal  [32-Bits]

Area                                    Addr        Size        Decimal Bytes (Attributes)
--------------------------------        ----        ----        ------- ----- ------------
XISEG                               00000051    0000000C =          12. bytes (REL,CON,XDATA)

      Value  Global                              Global Defined In Module
      -----  --------------------------------   ------------------------
D:   00000051  G$sPW_CENTER$0$0                   lab4kfix
D:   00000051  _sPW_CENTER                        lab4kfix
D:   00000053  G$sPW_MIN$0$0                      lab4kfix
D:   00000053  _sPW_MIN                           lab4kfix
D:   00000055  G$sPW_MAX$0$0                      lab4kfix
D:   00000055  _sPW_MAX                           lab4kfix
D:   00000057  G$mPW_CENTER$0$0                   lab4kfix
D:   00000057  _mPW_CENTER                        lab4kfix
D:   00000059  G$mPW_MIN$0$0                      lab4kfix
D:   00000059  _mPW_MIN                           lab4kfix
D:   0000005B  G$mPW_MAX$0$0                      lab4kfix
D:   0000005B  _mPW_MAX                           lab4kfix
ASxxxx Linker V03.00 + NoICE + sdld,  page 24.
Hexadecimal  [32-Bits]

Area                                    Addr        Size        Decimal Bytes (Attributes)
--------------------------------        ----        ----        ------- ----- ------------
HOME                                00000000    00000051 =          81. bytes (REL,CON,CODE)

      Value  Global                              Global Defined In Module
      -----  --------------------------------   ------------------------
C:   00000000  A$lab4kfix$1140                    lab4kfix
C:   00000003  A$lab4kfix$1141                    lab4kfix
C:   0000000B  A$lab4kfix$1143                    lab4kfix
C:   00000013  A$lab4kfix$1145                    lab4kfix
C:   0000001B  A$lab4kfix$1147                    lab4kfix
C:   00000023  A$lab4kfix$1149                    lab4kfix
C:   0000002B  A$lab4kfix$1151                    lab4kfix
C:   00000033  A$lab4kfix$1153                    lab4kfix
C:   0000003B  A$lab4kfix$1155                    lab4kfix
C:   00000043  A$lab4kfix$1157                    lab4kfix
C:   0000004B  A$lab4kfix$1159                    lab4kfix
C:   0000004E  A$lab4kfix$1228                    lab4kfix
C:   0000004E  __sdcc_program_startup             lab4kfix

ASxxxx Linker V03.00 + NoICE + sdld,  page 25.
Hexadecimal  [32-Bits]

Area                                    Addr        Size        Decimal Bytes (Attributes)
--------------------------------        ----        ----        ------- ----- ------------
GSINIT0                             00000051    00000003 =           3. bytes (REL,CON,CODE)

      Value  Global                              Global Defined In Module
      -----  --------------------------------   ------------------------
C:   00000051  __sdcc_gsinit_startup              

ASxxxx Linker V03.00 + NoICE + sdld,  page 26.
Hexadecimal  [32-Bits]

Area                                    Addr        Size        Decimal Bytes (Attributes)
--------------------------------        ----        ----        ------- ----- ------------
GSINIT2                             00000054    0000000A =          10. bytes (REL,CON,CODE)

      Value  Global                              Global Defined In Module
      -----  --------------------------------   ------------------------
ASxxxx Linker V03.00 + NoICE + sdld,  page 27.
Hexadecimal  [32-Bits]

Area                                    Addr        Size        Decimal Bytes (Attributes)
--------------------------------        ----        ----        ------- ----- ------------
GSINIT3                             0000005E    00000022 =          34. bytes (REL,CON,CODE)

      Value  Global                              Global Defined In Module
      -----  --------------------------------   ------------------------
C:   0000005E  __mcs51_genXINIT                   

ASxxxx Linker V03.00 + NoICE + sdld,  page 28.
Hexadecimal  [32-Bits]

Area                                    Addr        Size        Decimal Bytes (Attributes)
--------------------------------        ----        ----        ------- ----- ------------
GSINIT4                             00000080    0000002A =          42. bytes (REL,CON,CODE)

      Value  Global                              Global Defined In Module
      -----  --------------------------------   ------------------------
C:   00000080  __mcs51_genRAMCLEAR                
C:   00000086  __mcs51_genXRAMCLEAR               

ASxxxx Linker V03.00 + NoICE + sdld,  page 29.
Hexadecimal  [32-Bits]

Area                                    Addr        Size        Decimal Bytes (Attributes)
--------------------------------        ----        ----        ------- ----- ------------
GSINIT                              000000AA    00000027 =          39. bytes (REL,CON,CODE)

      Value  Global                              Global Defined In Module
      -----  --------------------------------   ------------------------
C:   000000AA  A$lab4kfix$1175                    lab4kfix
C:   000000AA  C$lab4kfix.c$32$1$180              lab4kfix
C:   000000AB  A$lab4kfix$1176                    lab4kfix
C:   000000AD  A$lab4kfix$1177                    lab4kfix
C:   000000AF  A$lab4kfix$1180                    lab4kfix
C:   000000AF  C$lab4kfix.c$37$1$180              lab4kfix
C:   000000B1  A$lab4kfix$1181                    lab4kfix
C:   000000B3  A$lab4kfix$1184                    lab4kfix
C:   000000B3  C$lab4kfix.c$46$1$180              lab4kfix
C:   000000B5  A$lab4kfix$1185                    lab4kfix
C:   000000B7  A$lab4kfix$1188                    lab4kfix
C:   000000B7  C$lab4kfix.c$47$1$180              lab4kfix
C:   000000BA  A$lab4kfix$1192                    lab4kfix
C:   000000BA  C$lab4kfix.c$48$1$180              lab4kfix
C:   000000BC  A$lab4kfix$1196                    lab4kfix
C:   000000BC  C$lab4kfix.c$49$1$180              lab4kfix
C:   000000BE  A$lab4kfix$1199                    lab4kfix
C:   000000BE  C$lab4kfix.c$51$1$180              lab4kfix
C:   000000C1  A$lab4kfix$1203                    lab4kfix
C:   000000C1  C$lab4kfix.c$54$1$180              lab4kfix
C:   000000C3  A$lab4kfix$1207                    lab4kfix
C:   000000C3  C$lab4kfix.c$55$1$180              lab4kfix
C:   000000C5  A$lab4kfix$1210                    lab4kfix
C:   000000C5  C$lab4kfix.c$56$1$180              lab4kfix
C:   000000C8  A$lab4kfix$1211                    lab4kfix
C:   000000CB  A$lab4kfix$1214                    lab4kfix
C:   000000CB  C$lab4kfix.c$63$1$180              lab4kfix
C:   000000CD  A$lab4kfix$1215                    lab4kfix
C:   000000CF  A$lab4kfix$1219                    lab4kfix
C:   000000CF  C$lab4kfix.c$64$1$180              lab4kfix
ASxxxx Linker V03.00 + NoICE + sdld,  page 30.
Hexadecimal  [32-Bits]

Area                                    Addr        Size        Decimal Bytes (Attributes)
--------------------------------        ----        ----        ------- ----- ------------
GSFINAL                             000000D1    00000003 =           3. bytes (REL,CON,CODE)

      Value  Global                              Global Defined In Module
      -----  --------------------------------   ------------------------
C:   000000D1  A$lab4kfix$1221                    lab4kfix

ASxxxx Linker V03.00 + NoICE + sdld,  page 31.
Hexadecimal  [32-Bits]

Area                                    Addr        Size        Decimal Bytes (Attributes)
--------------------------------        ----        ----        ------- ----- ------------
CSEG                                000000D4    00001ADD =        6877. bytes (REL,CON,CODE)

      Value  Global                              Global Defined In Module
      -----  --------------------------------   ------------------------
C:   000000D4  A$lab4kfix$1256                    lab4kfix
C:   000000D4  C$c8051_SDCC.h$62$0$0              lab4kfix
C:   000000D4  C$c8051_SDCC.h$66$1$2              lab4kfix
C:   000000D4  G$SYSCLK_Init$0$0                  lab4kfix
C:   000000D4  _SYSCLK_Init                       lab4kfix
C:   000000D7  A$lab4kfix$1259                    lab4kfix
C:   000000D7  C$c8051_SDCC.h$69$1$2              lab4kfix
C:   000000D9  A$lab4kfix$1260                    lab4kfix
C:   000000DB  A$lab4kfix$1262                    lab4kfix
C:   000000DC  A$lab4kfix$1263                    lab4kfix
C:   000000DE  A$lab4kfix$1264                    lab4kfix
C:   000000DF  A$lab4kfix$1265                    lab4kfix
C:   000000E0  A$lab4kfix$1266                    lab4kfix
C:   000000E2  A$lab4kfix$1267                    lab4kfix
C:   000000E3  A$lab4kfix$1268                    lab4kfix
C:   000000E5  A$lab4kfix$1269                    lab4kfix
C:   000000E7  A$lab4kfix$1270                    lab4kfix
C:   000000E8  A$lab4kfix$1271                    lab4kfix
C:   000000E9  A$lab4kfix$1272                    lab4kfix
C:   000000EB  A$lab4kfix$1276                    lab4kfix
C:   000000EB  C$c8051_SDCC.h$71$1$2              lab4kfix
C:   000000ED  A$lab4kfix$1277                    lab4kfix
C:   000000F0  A$lab4kfix$1280                    lab4kfix
C:   000000F0  C$c8051_SDCC.h$73$1$2              lab4kfix
C:   000000F3  A$lab4kfix$1283                    lab4kfix
C:   000000F3  C$c8051_SDCC.h$76$1$2              lab4kfix
C:   000000F3  XG$SYSCLK_Init$0$0                 lab4kfix
C:   000000F4  A$lab4kfix$1296                    lab4kfix
C:   000000F4  C$c8051_SDCC.h$84$1$2              lab4kfix
C:   000000F4  C$c8051_SDCC.h$86$1$4              lab4kfix
C:   000000F4  G$UART0_Init$0$0                   lab4kfix
C:   000000F4  _UART0_Init                        lab4kfix
C:   000000F7  A$lab4kfix$1299                    lab4kfix
C:   000000F7  C$c8051_SDCC.h$87$1$4              lab4kfix
C:   000000FA  A$lab4kfix$1302                    lab4kfix
C:   000000FA  C$c8051_SDCC.h$88$1$4              lab4kfix
C:   000000FD  A$lab4kfix$1305                    lab4kfix
C:   000000FD  C$c8051_SDCC.h$89$1$4              lab4kfix
C:   000000FF  A$lab4kfix$1308                    lab4kfix
C:   000000FF  C$c8051_SDCC.h$90$1$4              lab4kfix
C:   00000102  A$lab4kfix$1311                    lab4kfix
C:   00000102  C$c8051_SDCC.h$91$1$4              lab4kfix
C:   00000105  A$lab4kfix$1314                    lab4kfix
C:   00000105  C$c8051_SDCC.h$93$1$4              lab4kfix
C:   00000107  A$lab4kfix$1317                    lab4kfix
C:   00000107  C$c8051_SDCC.h$94$1$4              lab4kfix
C:   0000010A  A$lab4kfix$1320                    lab4kfix
C:   0000010A  C$c8051_SDCC.h$95$1$4              lab4kfix
C:   0000010A  XG$UART0_Init$0$0                  lab4kfix
C:   0000010B  A$lab4kfix$1333                    lab4kfix
ASxxxx Linker V03.00 + NoICE + sdld,  page 32.
Hexadecimal  [32-Bits]

Area                                    Addr        Size        Decimal Bytes (Attributes)
--------------------------------        ----        ----        ------- ----- ------------
CSEG                                000000D4    00001ADD =        6877. bytes (REL,CON,CODE)

      Value  Global                              Global Defined In Module
      -----  --------------------------------   ------------------------
C:   0000010B  C$c8051_SDCC.h$103$1$4             lab4kfix
C:   0000010B  C$c8051_SDCC.h$105$1$6             lab4kfix
C:   0000010B  G$Sys_Init$0$0                     lab4kfix
C:   0000010B  _Sys_Init                          lab4kfix
C:   0000010E  A$lab4kfix$1336                    lab4kfix
C:   0000010E  C$c8051_SDCC.h$106$1$6             lab4kfix
C:   00000111  A$lab4kfix$1339                    lab4kfix
C:   00000111  C$c8051_SDCC.h$108$1$6             lab4kfix
C:   00000114  A$lab4kfix$1342                    lab4kfix
C:   00000114  C$c8051_SDCC.h$109$1$6             lab4kfix
C:   00000117  A$lab4kfix$1345                    lab4kfix
C:   00000117  C$c8051_SDCC.h$111$1$6             lab4kfix
C:   0000011A  A$lab4kfix$1348                    lab4kfix
C:   0000011A  C$c8051_SDCC.h$112$1$6             lab4kfix
C:   0000011D  A$lab4kfix$1351                    lab4kfix
C:   0000011D  C$c8051_SDCC.h$113$1$6             lab4kfix
C:   0000011D  XG$Sys_Init$0$0                    lab4kfix
C:   0000011E  A$lab4kfix$1364                    lab4kfix
C:   0000011E  C$c8051_SDCC.h$129$1$6             lab4kfix
C:   0000011E  G$putchar$0$0                      lab4kfix
C:   0000011E  _putchar                           lab4kfix
C:   00000120  A$lab4kfix$1370                    lab4kfix
C:   00000120  C$c8051_SDCC.h$132$1$8             lab4kfix
C:   00000120  C$c8051_SDCC.h$133$1$8             lab4kfix
C:   00000123  A$lab4kfix$1371                    lab4kfix
C:   00000125  A$lab4kfix$1375                    lab4kfix
C:   00000125  C$c8051_SDCC.h$134$1$8             lab4kfix
C:   00000127  A$lab4kfix$1378                    lab4kfix
C:   00000127  C$c8051_SDCC.h$135$1$8             lab4kfix
C:   00000127  XG$putchar$0$0                     lab4kfix
C:   00000128  A$lab4kfix$1396                    lab4kfix
C:   00000128  C$c8051_SDCC.h$154$1$8             lab4kfix
C:   00000128  C$c8051_SDCC.h$157$1$10            lab4kfix
C:   00000128  C$c8051_SDCC.h$158$1$10            lab4kfix
C:   00000128  G$getchar$0$0                      lab4kfix
C:   00000128  _getchar                           lab4kfix
C:   0000012B  A$lab4kfix$1397                    lab4kfix
C:   0000012D  A$lab4kfix$1401                    lab4kfix
C:   0000012D  C$c8051_SDCC.h$159$1$10            lab4kfix
C:   0000012F  A$lab4kfix$1404                    lab4kfix
C:   0000012F  C$c8051_SDCC.h$160$1$10            lab4kfix
C:   00000131  A$lab4kfix$1405                    lab4kfix
C:   00000133  A$lab4kfix$1406                    lab4kfix
C:   00000136  A$lab4kfix$1407                    lab4kfix
C:   00000138  A$lab4kfix$1410                    lab4kfix
C:   00000138  C$c8051_SDCC.h$161$1$10            lab4kfix
C:   0000013A  A$lab4kfix$1413                    lab4kfix
C:   0000013A  C$c8051_SDCC.h$162$1$10            lab4kfix
C:   0000013A  XG$getchar$0$0                     lab4kfix
C:   0000013B  A$lab4kfix$1428                    lab4kfix
C:   0000013B  C$c8051_SDCC.h$168$1$10            lab4kfix
ASxxxx Linker V03.00 + NoICE + sdld,  page 33.
Hexadecimal  [32-Bits]

Area                                    Addr        Size        Decimal Bytes (Attributes)
--------------------------------        ----        ----        ------- ----- ------------
CSEG                                000000D4    00001ADD =        6877. bytes (REL,CON,CODE)

      Value  Global                              Global Defined In Module
      -----  --------------------------------   ------------------------
C:   0000013B  C$c8051_SDCC.h$171$1$12            lab4kfix
C:   0000013B  G$getchar_nw$0$0                   lab4kfix
C:   0000013B  _getchar_nw                        lab4kfix
C:   0000013E  A$lab4kfix$1429                    lab4kfix
C:   00000141  A$lab4kfix$1430                    lab4kfix
C:   00000143  A$lab4kfix$1434                    lab4kfix
C:   00000143  C$c8051_SDCC.h$174$2$13            lab4kfix
C:   00000145  A$lab4kfix$1437                    lab4kfix
C:   00000145  C$c8051_SDCC.h$175$2$13            lab4kfix
C:   00000148  A$lab4kfix$1440                    lab4kfix
C:   00000148  C$c8051_SDCC.h$176$2$13            lab4kfix
C:   0000014B  A$lab4kfix$1443                    lab4kfix
C:   0000014B  C$c8051_SDCC.h$177$2$13            lab4kfix
C:   0000014E  A$lab4kfix$1447                    lab4kfix
C:   0000014E  C$c8051_SDCC.h$179$1$12            lab4kfix
C:   0000014E  XG$getchar_nw$0$0                  lab4kfix
C:   0000014F  A$lab4kfix$1464                    lab4kfix
C:   0000014F  C$i2c.h$84$1$12                    lab4kfix
C:   0000014F  G$lcd_print$0$0                    lab4kfix
C:   0000014F  _lcd_print                         lab4kfix
C:   00000151  A$lab4kfix$1465                    lab4kfix
C:   00000154  A$lab4kfix$1468                    lab4kfix
C:   00000154  C$i2c.h$90$1$81                    lab4kfix
C:   00000156  A$lab4kfix$1469                    lab4kfix
C:   00000158  A$lab4kfix$1470                    lab4kfix
C:   00000159  A$lab4kfix$1471                    lab4kfix
C:   0000015B  A$lab4kfix$1472                    lab4kfix
C:   0000015C  A$lab4kfix$1473                    lab4kfix
C:   0000015E  A$lab4kfix$1474                    lab4kfix
C:   0000015F  A$lab4kfix$1475                    lab4kfix
C:   00000161  A$lab4kfix$1476                    lab4kfix
C:   00000164  A$lab4kfix$1477                    lab4kfix
C:   00000166  A$lab4kfix$1478                    lab4kfix
C:   00000169  A$lab4kfix$1479                    lab4kfix
C:   0000016B  A$lab4kfix$1480                    lab4kfix
C:   0000016D  A$lab4kfix$1481                    lab4kfix
C:   0000016F  A$lab4kfix$1485                    lab4kfix
C:   0000016F  C$i2c.h$92$2$82                    lab4kfix
C:   00000171  A$lab4kfix$1486                    lab4kfix
C:   00000173  A$lab4kfix$1487                    lab4kfix
C:   00000174  A$lab4kfix$1488                    lab4kfix
C:   00000176  A$lab4kfix$1491                    lab4kfix
C:   00000176  C$i2c.h$93$1$81                    lab4kfix
C:   00000178  A$lab4kfix$1492                    lab4kfix
C:   0000017A  A$lab4kfix$1493                    lab4kfix
C:   0000017B  A$lab4kfix$1494                    lab4kfix
C:   0000017D  A$lab4kfix$1495                    lab4kfix
C:   0000017E  A$lab4kfix$1496                    lab4kfix
C:   00000180  A$lab4kfix$1497                    lab4kfix
C:   00000181  A$lab4kfix$1498                    lab4kfix
C:   00000183  A$lab4kfix$1499                    lab4kfix
ASxxxx Linker V03.00 + NoICE + sdld,  page 34.
Hexadecimal  [32-Bits]

Area                                    Addr        Size        Decimal Bytes (Attributes)
--------------------------------        ----        ----        ------- ----- ------------
CSEG                                000000D4    00001ADD =        6877. bytes (REL,CON,CODE)

      Value  Global                              Global Defined In Module
      -----  --------------------------------   ------------------------
C:   00000186  A$lab4kfix$1500                    lab4kfix
C:   00000189  A$lab4kfix$1501                    lab4kfix
C:   0000018C  A$lab4kfix$1504                    lab4kfix
C:   0000018C  C$i2c.h$96$1$81                    lab4kfix
C:   0000018F  A$lab4kfix$1505                    lab4kfix
C:   00000192  A$lab4kfix$1506                    lab4kfix
C:   00000195  A$lab4kfix$1507                    lab4kfix
C:   00000197  A$lab4kfix$1510                    lab4kfix
C:   00000199  A$lab4kfix$1512                    lab4kfix
C:   0000019A  A$lab4kfix$1513                    lab4kfix
C:   0000019B  A$lab4kfix$1514                    lab4kfix
C:   0000019C  A$lab4kfix$1515                    lab4kfix
C:   0000019E  A$lab4kfix$1518                    lab4kfix
C:   0000019E  C$i2c.h$99$2$84                    lab4kfix
C:   0000019F  A$lab4kfix$1519                    lab4kfix
C:   000001A1  A$lab4kfix$1520                    lab4kfix
C:   000001A3  A$lab4kfix$1521                    lab4kfix
C:   000001A4  A$lab4kfix$1522                    lab4kfix
C:   000001A6  A$lab4kfix$1523                    lab4kfix
C:   000001A8  A$lab4kfix$1524                    lab4kfix
C:   000001A9  A$lab4kfix$1525                    lab4kfix
C:   000001AA  A$lab4kfix$1526                    lab4kfix
C:   000001AD  A$lab4kfix$1527                    lab4kfix
C:   000001AE  A$lab4kfix$1528                    lab4kfix
C:   000001B0  A$lab4kfix$1529                    lab4kfix
C:   000001B2  A$lab4kfix$1530                    lab4kfix
C:   000001B3  A$lab4kfix$1531                    lab4kfix
C:   000001B5  A$lab4kfix$1532                    lab4kfix
C:   000001B7  A$lab4kfix$1533                    lab4kfix
C:   000001B9  A$lab4kfix$1534                    lab4kfix
C:   000001BA  A$lab4kfix$1538                    lab4kfix
C:   000001BA  C$i2c.h$97$1$81                    lab4kfix
C:   000001BB  A$lab4kfix$1539                    lab4kfix
C:   000001BD  A$lab4kfix$1543                    lab4kfix
C:   000001BD  C$i2c.h$102$1$81                   lab4kfix
C:   000001C0  A$lab4kfix$1544                    lab4kfix
C:   000001C3  A$lab4kfix$1545                    lab4kfix
C:   000001C6  A$lab4kfix$1546                    lab4kfix
C:   000001C9  A$lab4kfix$1547                    lab4kfix
C:   000001CB  A$lab4kfix$1548                    lab4kfix
C:   000001CE  A$lab4kfix$1549                    lab4kfix
C:   000001D1  A$lab4kfix$1551                    lab4kfix
C:   000001D3  A$lab4kfix$1554                    lab4kfix
C:   000001D3  C$i2c.h$103$1$81                   lab4kfix
C:   000001D3  XG$lcd_print$0$0                   lab4kfix
C:   000001D4  A$lab4kfix$1570                    lab4kfix
C:   000001D4  C$i2c.h$106$1$81                   lab4kfix
C:   000001D4  C$i2c.h$108$1$81                   lab4kfix
C:   000001D4  G$lcd_clear$0$0                    lab4kfix
C:   000001D4  _lcd_clear                         lab4kfix
C:   000001D7  A$lab4kfix$1574                    lab4kfix
ASxxxx Linker V03.00 + NoICE + sdld,  page 35.
Hexadecimal  [32-Bits]

Area                                    Addr        Size        Decimal Bytes (Attributes)
--------------------------------        ----        ----        ------- ----- ------------
CSEG                                000000D4    00001ADD =        6877. bytes (REL,CON,CODE)

      Value  Global                              Global Defined In Module
      -----  --------------------------------   ------------------------
C:   000001D7  C$i2c.h$110$1$85                   lab4kfix
C:   000001D9  A$lab4kfix$1575                    lab4kfix
C:   000001DB  A$lab4kfix$1576                    lab4kfix
C:   000001DD  A$lab4kfix$1577                    lab4kfix
C:   000001E0  A$lab4kfix$1578                    lab4kfix
C:   000001E3  A$lab4kfix$1579                    lab4kfix
C:   000001E6  A$lab4kfix$1580                    lab4kfix
C:   000001E9  A$lab4kfix$1581                    lab4kfix
C:   000001EC  A$lab4kfix$1582                    lab4kfix
C:   000001EF  A$lab4kfix$1583                    lab4kfix
C:   000001F2  A$lab4kfix$1584                    lab4kfix
C:   000001F4  A$lab4kfix$1588                    lab4kfix
C:   000001F4  C$i2c.h$112$1$85                   lab4kfix
C:   000001F7  A$lab4kfix$1591                    lab4kfix
C:   000001F7  C$i2c.h$113$1$85                   lab4kfix
C:   000001FA  A$lab4kfix$1592                    lab4kfix
C:   000001FD  A$lab4kfix$1593                    lab4kfix
C:   00000200  A$lab4kfix$1594                    lab4kfix
C:   00000203  A$lab4kfix$1595                    lab4kfix
C:   00000206  A$lab4kfix$1596                    lab4kfix
C:   00000209  A$lab4kfix$1597                    lab4kfix
C:   0000020C  A$lab4kfix$1600                    lab4kfix
C:   0000020C  C$i2c.h$114$1$85                   lab4kfix
C:   0000020C  XG$lcd_clear$0$0                   lab4kfix
C:   0000020D  A$lab4kfix$1616                    lab4kfix
C:   0000020D  C$i2c.h$117$1$85                   lab4kfix
C:   0000020D  C$i2c.h$121$1$86                   lab4kfix
C:   0000020D  G$read_keypad$0$0                  lab4kfix
C:   0000020D  _read_keypad                       lab4kfix
C:   00000210  A$lab4kfix$1617                    lab4kfix
C:   00000213  A$lab4kfix$1618                    lab4kfix
C:   00000216  A$lab4kfix$1619                    lab4kfix
C:   00000219  A$lab4kfix$1620                    lab4kfix
C:   0000021C  A$lab4kfix$1621                    lab4kfix
C:   0000021F  A$lab4kfix$1622                    lab4kfix
C:   00000222  A$lab4kfix$1625                    lab4kfix
C:   00000222  C$i2c.h$122$1$86                   lab4kfix
C:   00000224  A$lab4kfix$1626                    lab4kfix
C:   00000227  A$lab4kfix$1627                    lab4kfix
C:   0000022A  A$lab4kfix$1628                    lab4kfix
C:   0000022C  A$lab4kfix$1632                    lab4kfix
C:   0000022E  A$lab4kfix$1633                    lab4kfix
C:   00000230  A$lab4kfix$1637                    lab4kfix
C:   00000230  C$i2c.h$126$2$87                   lab4kfix
C:   00000232  A$lab4kfix$1638                    lab4kfix
C:   00000234  A$lab4kfix$1639                    lab4kfix
C:   00000236  A$lab4kfix$1640                    lab4kfix
C:   00000238  A$lab4kfix$1641                    lab4kfix
C:   0000023A  A$lab4kfix$1643                    lab4kfix
C:   0000023B  A$lab4kfix$1644                    lab4kfix
C:   0000023C  A$lab4kfix$1645                    lab4kfix
ASxxxx Linker V03.00 + NoICE + sdld,  page 36.
Hexadecimal  [32-Bits]

Area                                    Addr        Size        Decimal Bytes (Attributes)
--------------------------------        ----        ----        ------- ----- ------------
CSEG                                000000D4    00001ADD =        6877. bytes (REL,CON,CODE)

      Value  Global                              Global Defined In Module
      -----  --------------------------------   ------------------------
C:   0000023D  A$lab4kfix$1646                    lab4kfix
C:   0000023E  A$lab4kfix$1647                    lab4kfix
C:   0000023F  A$lab4kfix$1648                    lab4kfix
C:   00000240  A$lab4kfix$1650                    lab4kfix
C:   00000243  A$lab4kfix$1651                    lab4kfix
C:   00000245  A$lab4kfix$1652                    lab4kfix
C:   00000247  A$lab4kfix$1653                    lab4kfix
C:   00000248  A$lab4kfix$1654                    lab4kfix
C:   0000024A  A$lab4kfix$1655                    lab4kfix
C:   0000024B  A$lab4kfix$1656                    lab4kfix
C:   0000024D  A$lab4kfix$1657                    lab4kfix
C:   0000024E  A$lab4kfix$1658                    lab4kfix
C:   0000024F  A$lab4kfix$1659                    lab4kfix
C:   00000251  A$lab4kfix$1662                    lab4kfix
C:   00000251  C$i2c.h$127$2$87                   lab4kfix
C:   00000253  A$lab4kfix$1663                    lab4kfix
C:   00000254  A$lab4kfix$1664                    lab4kfix
C:   00000256  A$lab4kfix$1665                    lab4kfix
C:   00000258  A$lab4kfix$1669                    lab4kfix
C:   00000258  C$i2c.h$124$1$86                   lab4kfix
C:   00000259  A$lab4kfix$1670                    lab4kfix
C:   0000025B  A$lab4kfix$1671                    lab4kfix
C:   0000025E  A$lab4kfix$1673                    lab4kfix
C:   00000260  A$lab4kfix$1676                    lab4kfix
C:   00000260  C$i2c.h$130$1$86                   lab4kfix
C:   00000262  A$lab4kfix$1677                    lab4kfix
C:   00000265  A$lab4kfix$1678                    lab4kfix
C:   00000268  A$lab4kfix$1679                    lab4kfix
C:   0000026A  A$lab4kfix$1683                    lab4kfix
C:   0000026A  C$i2c.h$132$1$86                   lab4kfix
C:   0000026C  A$lab4kfix$1684                    lab4kfix
C:   0000026F  A$lab4kfix$1685                    lab4kfix
C:   00000272  A$lab4kfix$1686                    lab4kfix
C:   00000274  A$lab4kfix$1690                    lab4kfix
C:   00000274  C$i2c.h$134$1$86                   lab4kfix
C:   00000276  A$lab4kfix$1691                    lab4kfix
C:   00000279  A$lab4kfix$1692                    lab4kfix
C:   0000027C  A$lab4kfix$1693                    lab4kfix
C:   0000027E  A$lab4kfix$1697                    lab4kfix
C:   0000027E  C$i2c.h$136$1$86                   lab4kfix
C:   00000280  A$lab4kfix$1698                    lab4kfix
C:   00000283  A$lab4kfix$1699                    lab4kfix
C:   00000286  A$lab4kfix$1700                    lab4kfix
C:   00000288  A$lab4kfix$1704                    lab4kfix
C:   00000288  C$i2c.h$138$1$86                   lab4kfix
C:   0000028B  A$lab4kfix$1708                    lab4kfix
C:   0000028B  C$i2c.h$139$1$86                   lab4kfix
C:   0000028B  XG$read_keypad$0$0                 lab4kfix
C:   0000028C  A$lab4kfix$1724                    lab4kfix
C:   0000028C  C$i2c.h$151$1$86                   lab4kfix
C:   0000028C  G$kpd_input$0$0                    lab4kfix
ASxxxx Linker V03.00 + NoICE + sdld,  page 37.
Hexadecimal  [32-Bits]

Area                                    Addr        Size        Decimal Bytes (Attributes)
--------------------------------        ----        ----        ------- ----- ------------
CSEG                                000000D4    00001ADD =        6877. bytes (REL,CON,CODE)

      Value  Global                              Global Defined In Module
      -----  --------------------------------   ------------------------
C:   0000028C  _kpd_input                         lab4kfix
C:   0000028E  A$lab4kfix$1729                    lab4kfix
C:   0000028E  C$i2c.h$156$1$89                   lab4kfix
C:   0000028E  C$i2c.h$159$1$89                   lab4kfix
C:   0000028F  A$lab4kfix$1730                    lab4kfix
C:   00000290  A$lab4kfix$1731                    lab4kfix
C:   00000291  A$lab4kfix$1732                    lab4kfix
C:   00000292  A$lab4kfix$1733                    lab4kfix
C:   00000294  A$lab4kfix$1734                    lab4kfix
C:   00000296  A$lab4kfix$1735                    lab4kfix
C:   00000298  A$lab4kfix$1736                    lab4kfix
C:   0000029A  A$lab4kfix$1737                    lab4kfix
C:   0000029C  A$lab4kfix$1738                    lab4kfix
C:   0000029E  A$lab4kfix$1739                    lab4kfix
C:   000002A0  A$lab4kfix$1740                    lab4kfix
C:   000002A2  A$lab4kfix$1741                    lab4kfix
C:   000002A4  A$lab4kfix$1742                    lab4kfix
C:   000002A7  A$lab4kfix$1743                    lab4kfix
C:   000002A9  A$lab4kfix$1744                    lab4kfix
C:   000002AB  A$lab4kfix$1745                    lab4kfix
C:   000002AD  A$lab4kfix$1746                    lab4kfix
C:   000002AF  A$lab4kfix$1747                    lab4kfix
C:   000002B1  A$lab4kfix$1751                    lab4kfix
C:   000002B1  C$i2c.h$161$1$89                   lab4kfix
C:   000002B3  A$lab4kfix$1752                    lab4kfix
C:   000002B5  A$lab4kfix$1753                    lab4kfix
C:   000002B7  A$lab4kfix$1754                    lab4kfix
C:   000002B9  A$lab4kfix$1755                    lab4kfix
C:   000002BA  A$lab4kfix$1756                    lab4kfix
C:   000002BC  A$lab4kfix$1757                    lab4kfix
C:   000002BE  A$lab4kfix$1758                    lab4kfix
C:   000002C0  A$lab4kfix$1759                    lab4kfix
C:   000002C1  A$lab4kfix$1760                    lab4kfix
C:   000002C3  A$lab4kfix$1761                    lab4kfix
C:   000002C5  A$lab4kfix$1762                    lab4kfix
C:   000002C7  A$lab4kfix$1763                    lab4kfix
C:   000002C8  A$lab4kfix$1764                    lab4kfix
C:   000002CA  A$lab4kfix$1765                    lab4kfix
C:   000002CC  A$lab4kfix$1766                    lab4kfix
C:   000002CE  A$lab4kfix$1767                    lab4kfix
C:   000002CF  A$lab4kfix$1768                    lab4kfix
C:   000002D1  A$lab4kfix$1769                    lab4kfix
C:   000002D3  A$lab4kfix$1770                    lab4kfix
C:   000002D5  A$lab4kfix$1771                    lab4kfix
C:   000002D6  A$lab4kfix$1772                    lab4kfix
C:   000002D8  A$lab4kfix$1773                    lab4kfix
C:   000002DA  A$lab4kfix$1774                    lab4kfix
C:   000002DC  A$lab4kfix$1775                    lab4kfix
C:   000002DE  A$lab4kfix$1776                    lab4kfix
C:   000002E0  A$lab4kfix$1777                    lab4kfix
C:   000002E2  A$lab4kfix$1778                    lab4kfix
ASxxxx Linker V03.00 + NoICE + sdld,  page 38.
Hexadecimal  [32-Bits]

Area                                    Addr        Size        Decimal Bytes (Attributes)
--------------------------------        ----        ----        ------- ----- ------------
CSEG                                000000D4    00001ADD =        6877. bytes (REL,CON,CODE)

      Value  Global                              Global Defined In Module
      -----  --------------------------------   ------------------------
C:   000002E4  A$lab4kfix$1779                    lab4kfix
C:   000002E7  A$lab4kfix$1780                    lab4kfix
C:   000002E9  A$lab4kfix$1781                    lab4kfix
C:   000002EB  A$lab4kfix$1782                    lab4kfix
C:   000002ED  A$lab4kfix$1785                    lab4kfix
C:   000002ED  C$i2c.h$163$1$89                   lab4kfix
C:   000002F0  A$lab4kfix$1786                    lab4kfix
C:   000002F3  A$lab4kfix$1787                    lab4kfix
C:   000002F4  A$lab4kfix$1788                    lab4kfix
C:   000002F7  A$lab4kfix$1789                    lab4kfix
C:   000002F9  A$lab4kfix$1790                    lab4kfix
C:   000002FB  A$lab4kfix$1793                    lab4kfix
C:   000002FD  A$lab4kfix$1797                    lab4kfix
C:   000002FD  C$i2c.h$169$3$92                   lab4kfix
C:   000002FF  A$lab4kfix$1798                    lab4kfix
C:   00000301  A$lab4kfix$1799                    lab4kfix
C:   00000303  A$lab4kfix$1800                    lab4kfix
C:   00000306  A$lab4kfix$1801                    lab4kfix
C:   00000308  A$lab4kfix$1802                    lab4kfix
C:   0000030A  A$lab4kfix$1803                    lab4kfix
C:   0000030C  A$lab4kfix$1804                    lab4kfix
C:   0000030E  A$lab4kfix$1805                    lab4kfix
C:   00000310  A$lab4kfix$1806                    lab4kfix
C:   00000313  A$lab4kfix$1807                    lab4kfix
C:   00000315  A$lab4kfix$1809                    lab4kfix
C:   00000318  A$lab4kfix$1811                    lab4kfix
C:   0000031B  A$lab4kfix$1812                    lab4kfix
C:   0000031C  A$lab4kfix$1813                    lab4kfix
C:   0000031E  A$lab4kfix$1814                    lab4kfix
C:   00000320  A$lab4kfix$1815                    lab4kfix
C:   00000322  A$lab4kfix$1816                    lab4kfix
C:   00000324  A$lab4kfix$1817                    lab4kfix
C:   00000327  A$lab4kfix$1818                    lab4kfix
C:   00000329  A$lab4kfix$1819                    lab4kfix
C:   0000032B  A$lab4kfix$1820                    lab4kfix
C:   0000032D  A$lab4kfix$1821                    lab4kfix
C:   0000032F  A$lab4kfix$1825                    lab4kfix
C:   0000032F  C$i2c.h$170$2$90                   lab4kfix
C:   00000332  A$lab4kfix$1829                    lab4kfix
C:   00000332  C$i2c.h$172$3$91                   lab4kfix
C:   00000334  A$lab4kfix$1830                    lab4kfix
C:   00000336  A$lab4kfix$1831                    lab4kfix
C:   00000339  A$lab4kfix$1832                    lab4kfix
C:   0000033B  A$lab4kfix$1833                    lab4kfix
C:   0000033D  A$lab4kfix$1834                    lab4kfix
C:   0000033F  A$lab4kfix$1835                    lab4kfix
C:   00000342  A$lab4kfix$1836                    lab4kfix
C:   00000345  A$lab4kfix$1837                    lab4kfix
C:   00000346  A$lab4kfix$1838                    lab4kfix
C:   00000348  A$lab4kfix$1839                    lab4kfix
C:   0000034A  A$lab4kfix$1840                    lab4kfix
ASxxxx Linker V03.00 + NoICE + sdld,  page 39.
Hexadecimal  [32-Bits]

Area                                    Addr        Size        Decimal Bytes (Attributes)
--------------------------------        ----        ----        ------- ----- ------------
CSEG                                000000D4    00001ADD =        6877. bytes (REL,CON,CODE)

      Value  Global                              Global Defined In Module
      -----  --------------------------------   ------------------------
C:   0000034C  A$lab4kfix$1841                    lab4kfix
C:   0000034F  A$lab4kfix$1842                    lab4kfix
C:   00000351  A$lab4kfix$1843                    lab4kfix
C:   00000353  A$lab4kfix$1844                    lab4kfix
C:   00000355  A$lab4kfix$1848                    lab4kfix
C:   00000355  C$i2c.h$173$3$91                   lab4kfix
C:   00000357  A$lab4kfix$1849                    lab4kfix
C:   00000359  A$lab4kfix$1850                    lab4kfix
C:   0000035C  A$lab4kfix$1854                    lab4kfix
C:   0000035C  C$i2c.h$177$3$92                   lab4kfix
C:   0000035E  A$lab4kfix$1855                    lab4kfix
C:   00000360  A$lab4kfix$1856                    lab4kfix
C:   00000362  A$lab4kfix$1857                    lab4kfix
C:   00000364  A$lab4kfix$1858                    lab4kfix
C:   00000366  A$lab4kfix$1859                    lab4kfix
C:   00000368  A$lab4kfix$1860                    lab4kfix
C:   0000036A  A$lab4kfix$1861                    lab4kfix
C:   0000036C  A$lab4kfix$1862                    lab4kfix
C:   0000036E  A$lab4kfix$1863                    lab4kfix
C:   00000370  A$lab4kfix$1864                    lab4kfix
C:   00000372  A$lab4kfix$1865                    lab4kfix
C:   00000374  A$lab4kfix$1866                    lab4kfix
C:   00000376  A$lab4kfix$1867                    lab4kfix
C:   00000378  A$lab4kfix$1868                    lab4kfix
C:   0000037A  A$lab4kfix$1869                    lab4kfix
C:   0000037C  A$lab4kfix$1870                    lab4kfix
C:   0000037F  A$lab4kfix$1871                    lab4kfix
C:   00000381  A$lab4kfix$1872                    lab4kfix
C:   00000383  A$lab4kfix$1873                    lab4kfix
C:   00000385  A$lab4kfix$1874                    lab4kfix
C:   00000387  A$lab4kfix$1875                    lab4kfix
C:   00000389  A$lab4kfix$1876                    lab4kfix
C:   0000038B  A$lab4kfix$1877                    lab4kfix
C:   0000038D  A$lab4kfix$1878                    lab4kfix
C:   0000038F  A$lab4kfix$1881                    lab4kfix
C:   0000038F  C$i2c.h$178$1$89                   lab4kfix
C:   00000391  A$lab4kfix$1882                    lab4kfix
C:   00000393  A$lab4kfix$1883                    lab4kfix
C:   00000396  A$lab4kfix$1884                    lab4kfix
C:   00000398  A$lab4kfix$1885                    lab4kfix
C:   0000039A  A$lab4kfix$1886                    lab4kfix
C:   0000039C  A$lab4kfix$1887                    lab4kfix
C:   0000039F  A$lab4kfix$1888                    lab4kfix
C:   000003A1  A$lab4kfix$1889                    lab4kfix
C:   000003A3  A$lab4kfix$1890                    lab4kfix
C:   000003A5  A$lab4kfix$1891                    lab4kfix
C:   000003A7  A$lab4kfix$1892                    lab4kfix
C:   000003A9  A$lab4kfix$1893                    lab4kfix
C:   000003AB  A$lab4kfix$1894                    lab4kfix
C:   000003AC  A$lab4kfix$1895                    lab4kfix
C:   000003AD  A$lab4kfix$1896                    lab4kfix
ASxxxx Linker V03.00 + NoICE + sdld,  page 40.
Hexadecimal  [32-Bits]

Area                                    Addr        Size        Decimal Bytes (Attributes)
--------------------------------        ----        ----        ------- ----- ------------
CSEG                                000000D4    00001ADD =        6877. bytes (REL,CON,CODE)

      Value  Global                              Global Defined In Module
      -----  --------------------------------   ------------------------
C:   000003AE  A$lab4kfix$1897                    lab4kfix
C:   000003AF  A$lab4kfix$1898                    lab4kfix
C:   000003B0  A$lab4kfix$1899                    lab4kfix
C:   000003B1  A$lab4kfix$1900                    lab4kfix
C:   000003B2  A$lab4kfix$1901                    lab4kfix
C:   000003B4  A$lab4kfix$1902                    lab4kfix
C:   000003B5  A$lab4kfix$1903                    lab4kfix
C:   000003B6  A$lab4kfix$1904                    lab4kfix
C:   000003B8  A$lab4kfix$1905                    lab4kfix
C:   000003B9  A$lab4kfix$1909                    lab4kfix
C:   000003B9  C$i2c.h$179$3$92                   lab4kfix
C:   000003BB  A$lab4kfix$1910                    lab4kfix
C:   000003BD  A$lab4kfix$1911                    lab4kfix
C:   000003BF  A$lab4kfix$1912                    lab4kfix
C:   000003C1  A$lab4kfix$1913                    lab4kfix
C:   000003C4  A$lab4kfix$1914                    lab4kfix
C:   000003C6  A$lab4kfix$1915                    lab4kfix
C:   000003C8  A$lab4kfix$1916                    lab4kfix
C:   000003CA  A$lab4kfix$1917                    lab4kfix
C:   000003CC  A$lab4kfix$1918                    lab4kfix
C:   000003CE  A$lab4kfix$1919                    lab4kfix
C:   000003CF  A$lab4kfix$1920                    lab4kfix
C:   000003D2  A$lab4kfix$1921                    lab4kfix
C:   000003D5  A$lab4kfix$1922                    lab4kfix
C:   000003D6  A$lab4kfix$1923                    lab4kfix
C:   000003D8  A$lab4kfix$1924                    lab4kfix
C:   000003DA  A$lab4kfix$1925                    lab4kfix
C:   000003DC  A$lab4kfix$1926                    lab4kfix
C:   000003DE  A$lab4kfix$1927                    lab4kfix
C:   000003E0  A$lab4kfix$1928                    lab4kfix
C:   000003E3  A$lab4kfix$1929                    lab4kfix
C:   000003E5  A$lab4kfix$1930                    lab4kfix
C:   000003E7  A$lab4kfix$1931                    lab4kfix
C:   000003E9  A$lab4kfix$1932                    lab4kfix
C:   000003EB  A$lab4kfix$1933                    lab4kfix
C:   000003ED  A$lab4kfix$1937                    lab4kfix
C:   000003ED  C$i2c.h$167$1$89                   lab4kfix
C:   000003EE  A$lab4kfix$1938                    lab4kfix
C:   000003F1  A$lab4kfix$1940                    lab4kfix
C:   000003F3  A$lab4kfix$1941                    lab4kfix
C:   000003F6  A$lab4kfix$1945                    lab4kfix
C:   000003F6  C$i2c.h$182$1$89                   lab4kfix
C:   000003F8  A$lab4kfix$1946                    lab4kfix
C:   000003FA  A$lab4kfix$1950                    lab4kfix
C:   000003FA  C$i2c.h$183$1$89                   lab4kfix
C:   000003FA  XG$kpd_input$0$0                   lab4kfix
C:   000003FB  A$lab4kfix$1964                    lab4kfix
C:   000003FB  C$i2c.h$192$1$89                   lab4kfix
C:   000003FB  G$delay_time$0$0                   lab4kfix
C:   000003FB  _delay_time                        lab4kfix
C:   000003FD  A$lab4kfix$1965                    lab4kfix
ASxxxx Linker V03.00 + NoICE + sdld,  page 41.
Hexadecimal  [32-Bits]

Area                                    Addr        Size        Decimal Bytes (Attributes)
--------------------------------        ----        ----        ------- ----- ------------
CSEG                                000000D4    00001ADD =        6877. bytes (REL,CON,CODE)

      Value  Global                              Global Defined In Module
      -----  --------------------------------   ------------------------
C:   000003FF  A$lab4kfix$1966                    lab4kfix
C:   00000401  A$lab4kfix$1967                    lab4kfix
C:   00000402  A$lab4kfix$1970                    lab4kfix
C:   00000402  C$i2c.h$196$1$94                   lab4kfix
C:   00000404  A$lab4kfix$1971                    lab4kfix
C:   00000406  A$lab4kfix$1972                    lab4kfix
C:   00000408  A$lab4kfix$1973                    lab4kfix
C:   0000040A  A$lab4kfix$1975                    lab4kfix
C:   0000040B  A$lab4kfix$1976                    lab4kfix
C:   0000040C  A$lab4kfix$1977                    lab4kfix
C:   0000040D  A$lab4kfix$1978                    lab4kfix
C:   0000040E  A$lab4kfix$1979                    lab4kfix
C:   0000040F  A$lab4kfix$1980                    lab4kfix
C:   00000410  A$lab4kfix$1981                    lab4kfix
C:   00000411  A$lab4kfix$1982                    lab4kfix
C:   00000412  A$lab4kfix$1983                    lab4kfix
C:   00000413  A$lab4kfix$1984                    lab4kfix
C:   00000415  A$lab4kfix$1985                    lab4kfix
C:   00000416  A$lab4kfix$1986                    lab4kfix
C:   00000419  A$lab4kfix$1987                    lab4kfix
C:   0000041A  A$lab4kfix$1988                    lab4kfix
C:   0000041D  A$lab4kfix$1989                    lab4kfix
C:   0000041E  A$lab4kfix$1990                    lab4kfix
C:   00000421  A$lab4kfix$1991                    lab4kfix
C:   00000422  A$lab4kfix$1993                    lab4kfix
C:   00000424  A$lab4kfix$1997                    lab4kfix
C:   00000424  C$i2c.h$197$1$94                   lab4kfix
C:   00000424  XG$delay_time$0$0                  lab4kfix
C:   00000425  A$lab4kfix$2011                    lab4kfix
C:   00000425  C$i2c.h$200$1$94                   lab4kfix
C:   00000425  C$i2c.h$202$1$96                   lab4kfix
C:   00000425  G$i2c_start$0$0                    lab4kfix
C:   00000425  _i2c_start                         lab4kfix
C:   00000428  A$lab4kfix$2014                    lab4kfix
C:   00000428  C$i2c.h$203$1$96                   lab4kfix
C:   0000042A  A$lab4kfix$2018                    lab4kfix
C:   0000042A  C$i2c.h$204$1$96                   lab4kfix
C:   0000042D  A$lab4kfix$2021                    lab4kfix
C:   0000042D  C$i2c.h$205$1$96                   lab4kfix
C:   0000042F  A$lab4kfix$2024                    lab4kfix
C:   0000042F  C$i2c.h$206$1$96                   lab4kfix
C:   00000431  A$lab4kfix$2027                    lab4kfix
C:   00000431  C$i2c.h$207$1$96                   lab4kfix
C:   00000431  XG$i2c_start$0$0                   lab4kfix
C:   00000432  A$lab4kfix$2040                    lab4kfix
C:   00000432  C$i2c.h$210$1$96                   lab4kfix
C:   00000432  G$i2c_write$0$0                    lab4kfix
C:   00000432  _i2c_write                         lab4kfix
C:   00000435  A$lab4kfix$2046                    lab4kfix
C:   00000435  C$i2c.h$213$1$98                   lab4kfix
C:   00000435  C$i2c.h$214$1$98                   lab4kfix
ASxxxx Linker V03.00 + NoICE + sdld,  page 42.
Hexadecimal  [32-Bits]

Area                                    Addr        Size        Decimal Bytes (Attributes)
--------------------------------        ----        ----        ------- ----- ------------
CSEG                                000000D4    00001ADD =        6877. bytes (REL,CON,CODE)

      Value  Global                              Global Defined In Module
      -----  --------------------------------   ------------------------
C:   00000438  A$lab4kfix$2047                    lab4kfix
C:   0000043A  A$lab4kfix$2051                    lab4kfix
C:   0000043A  C$i2c.h$215$1$98                   lab4kfix
C:   0000043A  XG$i2c_write$0$0                   lab4kfix
C:   0000043B  A$lab4kfix$2064                    lab4kfix
C:   0000043B  C$i2c.h$218$1$98                   lab4kfix
C:   0000043B  G$i2c_write_and_stop$0$0           lab4kfix
C:   0000043B  _i2c_write_and_stop                lab4kfix
C:   0000043E  A$lab4kfix$2067                    lab4kfix
C:   0000043E  C$i2c.h$221$1$100                  lab4kfix
C:   00000440  A$lab4kfix$2073                    lab4kfix
C:   00000440  C$i2c.h$222$1$100                  lab4kfix
C:   00000440  C$i2c.h$223$1$100                  lab4kfix
C:   00000443  A$lab4kfix$2074                    lab4kfix
C:   00000445  A$lab4kfix$2078                    lab4kfix
C:   00000445  C$i2c.h$224$1$100                  lab4kfix
C:   00000445  XG$i2c_write_and_stop$0$0          lab4kfix
C:   00000446  A$lab4kfix$2094                    lab4kfix
C:   00000446  C$i2c.h$227$1$100                  lab4kfix
C:   00000446  C$i2c.h$231$1$102                  lab4kfix
C:   00000446  G$i2c_read$0$0                     lab4kfix
C:   00000446  _i2c_read                          lab4kfix
C:   00000449  A$lab4kfix$2097                    lab4kfix
C:   00000449  C$i2c.h$232$1$102                  lab4kfix
C:   0000044C  A$lab4kfix$2100                    lab4kfix
C:   0000044C  C$i2c.h$233$1$102                  lab4kfix
C:   0000044E  A$lab4kfix$2105                    lab4kfix
C:   0000044E  C$i2c.h$234$1$102                  lab4kfix
C:   0000044E  C$i2c.h$235$1$102                  lab4kfix
C:   0000044E  XG$i2c_read$0$0                    lab4kfix
C:   0000044F  A$lab4kfix$2121                    lab4kfix
C:   0000044F  C$i2c.h$238$1$102                  lab4kfix
C:   0000044F  C$i2c.h$242$1$104                  lab4kfix
C:   0000044F  G$i2c_read_and_stop$0$0            lab4kfix
C:   0000044F  _i2c_read_and_stop                 lab4kfix
C:   00000452  A$lab4kfix$2124                    lab4kfix
C:   00000452  C$i2c.h$243$1$104                  lab4kfix
C:   00000454  A$lab4kfix$2127                    lab4kfix
C:   00000454  C$i2c.h$244$1$104                  lab4kfix
C:   00000456  A$lab4kfix$2130                    lab4kfix
C:   00000456  C$i2c.h$245$1$104                  lab4kfix
C:   00000458  A$lab4kfix$2136                    lab4kfix
C:   00000458  C$i2c.h$246$1$104                  lab4kfix
C:   00000458  C$i2c.h$247$1$104                  lab4kfix
C:   0000045B  A$lab4kfix$2137                    lab4kfix
C:   0000045D  A$lab4kfix$2141                    lab4kfix
C:   0000045D  C$i2c.h$248$1$104                  lab4kfix
C:   0000045F  A$lab4kfix$2144                    lab4kfix
C:   0000045F  C$i2c.h$249$1$104                  lab4kfix
C:   0000045F  XG$i2c_read_and_stop$0$0           lab4kfix
C:   00000460  A$lab4kfix$2161                    lab4kfix
ASxxxx Linker V03.00 + NoICE + sdld,  page 43.
Hexadecimal  [32-Bits]

Area                                    Addr        Size        Decimal Bytes (Attributes)
--------------------------------        ----        ----        ------- ----- ------------
CSEG                                000000D4    00001ADD =        6877. bytes (REL,CON,CODE)

      Value  Global                              Global Defined In Module
      -----  --------------------------------   ------------------------
C:   00000460  C$i2c.h$252$1$104                  lab4kfix
C:   00000460  G$i2c_write_data$0$0               lab4kfix
C:   00000460  _i2c_write_data                    lab4kfix
C:   00000462  A$lab4kfix$2164                    lab4kfix
C:   00000462  C$i2c.h$256$1$106                  lab4kfix
C:   00000464  A$lab4kfix$2167                    lab4kfix
C:   00000464  C$i2c.h$257$1$106                  lab4kfix
C:   00000466  A$lab4kfix$2168                    lab4kfix
C:   00000469  A$lab4kfix$2169                    lab4kfix
C:   0000046B  A$lab4kfix$2172                    lab4kfix
C:   0000046B  C$i2c.h$258$1$106                  lab4kfix
C:   0000046D  A$lab4kfix$2173                    lab4kfix
C:   0000046E  A$lab4kfix$2174                    lab4kfix
C:   00000470  A$lab4kfix$2175                    lab4kfix
C:   00000473  A$lab4kfix$2178                    lab4kfix
C:   00000473  C$i2c.h$259$1$106                  lab4kfix
C:   00000476  A$lab4kfix$2179                    lab4kfix
C:   00000479  A$lab4kfix$2182                    lab4kfix
C:   0000047B  A$lab4kfix$2184                    lab4kfix
C:   0000047D  A$lab4kfix$2185                    lab4kfix
C:   0000047F  A$lab4kfix$2186                    lab4kfix
C:   00000480  A$lab4kfix$2187                    lab4kfix
C:   00000483  A$lab4kfix$2188                    lab4kfix
C:   00000484  A$lab4kfix$2190                    lab4kfix
C:   00000486  A$lab4kfix$2191                    lab4kfix
C:   00000488  A$lab4kfix$2192                    lab4kfix
C:   00000489  A$lab4kfix$2193                    lab4kfix
C:   0000048A  A$lab4kfix$2194                    lab4kfix
C:   0000048B  A$lab4kfix$2195                    lab4kfix
C:   0000048C  A$lab4kfix$2196                    lab4kfix
C:   0000048E  A$lab4kfix$2197                    lab4kfix
C:   00000490  A$lab4kfix$2198                    lab4kfix
C:   00000493  A$lab4kfix$2199                    lab4kfix
C:   00000495  A$lab4kfix$2200                    lab4kfix
C:   00000497  A$lab4kfix$2203                    lab4kfix
C:   00000497  C$i2c.h$261$1$106                  lab4kfix
C:   00000498  A$lab4kfix$2204                    lab4kfix
C:   0000049A  A$lab4kfix$2205                    lab4kfix
C:   0000049B  A$lab4kfix$2206                    lab4kfix
C:   0000049C  A$lab4kfix$2207                    lab4kfix
C:   0000049E  A$lab4kfix$2208                    lab4kfix
C:   0000049F  A$lab4kfix$2209                    lab4kfix
C:   000004A1  A$lab4kfix$2210                    lab4kfix
C:   000004A3  A$lab4kfix$2211                    lab4kfix
C:   000004A5  A$lab4kfix$2212                    lab4kfix
C:   000004A7  A$lab4kfix$2213                    lab4kfix
C:   000004AA  A$lab4kfix$2214                    lab4kfix
C:   000004AC  A$lab4kfix$2215                    lab4kfix
C:   000004AE  A$lab4kfix$2216                    lab4kfix
C:   000004B1  A$lab4kfix$2217                    lab4kfix
C:   000004B3  A$lab4kfix$2220                    lab4kfix
ASxxxx Linker V03.00 + NoICE + sdld,  page 44.
Hexadecimal  [32-Bits]

Area                                    Addr        Size        Decimal Bytes (Attributes)
--------------------------------        ----        ----        ------- ----- ------------
CSEG                                000000D4    00001ADD =        6877. bytes (REL,CON,CODE)

      Value  Global                              Global Defined In Module
      -----  --------------------------------   ------------------------
C:   000004B3  C$i2c.h$260$1$106                  lab4kfix
C:   000004B4  A$lab4kfix$2221                    lab4kfix
C:   000004B6  A$lab4kfix$2225                    lab4kfix
C:   000004B6  C$i2c.h$262$1$106                  lab4kfix
C:   000004B8  A$lab4kfix$2226                    lab4kfix
C:   000004BA  A$lab4kfix$2227                    lab4kfix
C:   000004BB  A$lab4kfix$2228                    lab4kfix
C:   000004BE  A$lab4kfix$2229                    lab4kfix
C:   000004BF  A$lab4kfix$2231                    lab4kfix
C:   000004C0  A$lab4kfix$2232                    lab4kfix
C:   000004C2  A$lab4kfix$2233                    lab4kfix
C:   000004C3  A$lab4kfix$2234                    lab4kfix
C:   000004C4  A$lab4kfix$2235                    lab4kfix
C:   000004C6  A$lab4kfix$2236                    lab4kfix
C:   000004C7  A$lab4kfix$2237                    lab4kfix
C:   000004C9  A$lab4kfix$2238                    lab4kfix
C:   000004CB  A$lab4kfix$2239                    lab4kfix
C:   000004CD  A$lab4kfix$2240                    lab4kfix
C:   000004CF  A$lab4kfix$2241                    lab4kfix
C:   000004D2  A$lab4kfix$2242                    lab4kfix
C:   000004D4  A$lab4kfix$2243                    lab4kfix
C:   000004D7  A$lab4kfix$2246                    lab4kfix
C:   000004D7  C$i2c.h$263$1$106                  lab4kfix
C:   000004D9  A$lab4kfix$2249                    lab4kfix
C:   000004D9  C$i2c.h$264$1$106                  lab4kfix
C:   000004D9  XG$i2c_write_data$0$0              lab4kfix
C:   000004DA  A$lab4kfix$2266                    lab4kfix
C:   000004DA  C$i2c.h$267$1$106                  lab4kfix
C:   000004DA  G$i2c_read_data$0$0                lab4kfix
C:   000004DA  _i2c_read_data                     lab4kfix
C:   000004DC  A$lab4kfix$2269                    lab4kfix
C:   000004DC  C$i2c.h$271$1$108                  lab4kfix
C:   000004DE  A$lab4kfix$2272                    lab4kfix
C:   000004DE  C$i2c.h$272$1$108                  lab4kfix
C:   000004E0  A$lab4kfix$2273                    lab4kfix
C:   000004E3  A$lab4kfix$2274                    lab4kfix
C:   000004E5  A$lab4kfix$2277                    lab4kfix
C:   000004E5  C$i2c.h$273$1$108                  lab4kfix
C:   000004E7  A$lab4kfix$2278                    lab4kfix
C:   000004E8  A$lab4kfix$2279                    lab4kfix
C:   000004EA  A$lab4kfix$2280                    lab4kfix
C:   000004EC  A$lab4kfix$2281                    lab4kfix
C:   000004EF  A$lab4kfix$2284                    lab4kfix
C:   000004EF  C$i2c.h$274$1$108                  lab4kfix
C:   000004F2  A$lab4kfix$2285                    lab4kfix
C:   000004F5  A$lab4kfix$2288                    lab4kfix
C:   000004F5  C$i2c.h$275$1$108                  lab4kfix
C:   000004F8  A$lab4kfix$2289                    lab4kfix
C:   000004FA  A$lab4kfix$2292                    lab4kfix
C:   000004FA  C$i2c.h$276$1$108                  lab4kfix
C:   000004FC  A$lab4kfix$2293                    lab4kfix
ASxxxx Linker V03.00 + NoICE + sdld,  page 45.
Hexadecimal  [32-Bits]

Area                                    Addr        Size        Decimal Bytes (Attributes)
--------------------------------        ----        ----        ------- ----- ------------
CSEG                                000000D4    00001ADD =        6877. bytes (REL,CON,CODE)

      Value  Global                              Global Defined In Module
      -----  --------------------------------   ------------------------
C:   000004FD  A$lab4kfix$2294                    lab4kfix
C:   000004FF  A$lab4kfix$2295                    lab4kfix
C:   00000502  A$lab4kfix$2298                    lab4kfix
C:   00000504  A$lab4kfix$2300                    lab4kfix
C:   00000506  A$lab4kfix$2301                    lab4kfix
C:   00000508  A$lab4kfix$2302                    lab4kfix
C:   00000509  A$lab4kfix$2303                    lab4kfix
C:   0000050C  A$lab4kfix$2304                    lab4kfix
C:   0000050D  A$lab4kfix$2306                    lab4kfix
C:   0000050F  A$lab4kfix$2307                    lab4kfix
C:   00000511  A$lab4kfix$2308                    lab4kfix
C:   00000512  A$lab4kfix$2309                    lab4kfix
C:   00000513  A$lab4kfix$2310                    lab4kfix
C:   00000514  A$lab4kfix$2311                    lab4kfix
C:   00000515  A$lab4kfix$2312                    lab4kfix
C:   00000517  A$lab4kfix$2313                    lab4kfix
C:   00000519  A$lab4kfix$2314                    lab4kfix
C:   0000051C  A$lab4kfix$2315                    lab4kfix
C:   0000051E  A$lab4kfix$2316                    lab4kfix
C:   00000520  A$lab4kfix$2319                    lab4kfix
C:   00000520  C$i2c.h$279$2$109                  lab4kfix
C:   00000522  A$lab4kfix$2322                    lab4kfix
C:   00000522  C$i2c.h$280$2$109                  lab4kfix
C:   00000523  A$lab4kfix$2323                    lab4kfix
C:   00000525  A$lab4kfix$2324                    lab4kfix
C:   00000526  A$lab4kfix$2325                    lab4kfix
C:   00000527  A$lab4kfix$2326                    lab4kfix
C:   00000529  A$lab4kfix$2327                    lab4kfix
C:   0000052A  A$lab4kfix$2328                    lab4kfix
C:   0000052C  A$lab4kfix$2329                    lab4kfix
C:   0000052E  A$lab4kfix$2330                    lab4kfix
C:   00000530  A$lab4kfix$2331                    lab4kfix
C:   00000532  A$lab4kfix$2332                    lab4kfix
C:   00000534  A$lab4kfix$2333                    lab4kfix
C:   00000537  A$lab4kfix$2334                    lab4kfix
C:   00000539  A$lab4kfix$2335                    lab4kfix
C:   0000053B  A$lab4kfix$2336                    lab4kfix
C:   0000053D  A$lab4kfix$2337                    lab4kfix
C:   0000053F  A$lab4kfix$2338                    lab4kfix
C:   00000541  A$lab4kfix$2339                    lab4kfix
C:   00000543  A$lab4kfix$2340                    lab4kfix
C:   00000545  A$lab4kfix$2341                    lab4kfix
C:   00000547  A$lab4kfix$2342                    lab4kfix
C:   00000548  A$lab4kfix$2343                    lab4kfix
C:   0000054B  A$lab4kfix$2346                    lab4kfix
C:   0000054B  C$i2c.h$277$1$108                  lab4kfix
C:   0000054C  A$lab4kfix$2347                    lab4kfix
C:   0000054E  A$lab4kfix$2351                    lab4kfix
C:   0000054E  C$i2c.h$282$1$108                  lab4kfix
C:   00000550  A$lab4kfix$2354                    lab4kfix
C:   00000550  C$i2c.h$283$1$108                  lab4kfix
ASxxxx Linker V03.00 + NoICE + sdld,  page 46.
Hexadecimal  [32-Bits]

Area                                    Addr        Size        Decimal Bytes (Attributes)
--------------------------------        ----        ----        ------- ----- ------------
CSEG                                000000D4    00001ADD =        6877. bytes (REL,CON,CODE)

      Value  Global                              Global Defined In Module
      -----  --------------------------------   ------------------------
C:   00000552  A$lab4kfix$2355                    lab4kfix
C:   00000554  A$lab4kfix$2356                    lab4kfix
C:   00000555  A$lab4kfix$2357                    lab4kfix
C:   00000558  A$lab4kfix$2358                    lab4kfix
C:   00000559  A$lab4kfix$2360                    lab4kfix
C:   0000055A  A$lab4kfix$2361                    lab4kfix
C:   0000055C  A$lab4kfix$2362                    lab4kfix
C:   0000055D  A$lab4kfix$2363                    lab4kfix
C:   0000055E  A$lab4kfix$2364                    lab4kfix
C:   00000560  A$lab4kfix$2365                    lab4kfix
C:   00000561  A$lab4kfix$2366                    lab4kfix
C:   00000563  A$lab4kfix$2367                    lab4kfix
C:   00000565  A$lab4kfix$2368                    lab4kfix
C:   00000567  A$lab4kfix$2369                    lab4kfix
C:   00000569  A$lab4kfix$2370                    lab4kfix
C:   0000056C  A$lab4kfix$2371                    lab4kfix
C:   0000056E  A$lab4kfix$2372                    lab4kfix
C:   00000570  A$lab4kfix$2373                    lab4kfix
C:   00000572  A$lab4kfix$2374                    lab4kfix
C:   00000574  A$lab4kfix$2375                    lab4kfix
C:   00000576  A$lab4kfix$2376                    lab4kfix
C:   00000578  A$lab4kfix$2377                    lab4kfix
C:   0000057A  A$lab4kfix$2378                    lab4kfix
C:   0000057B  A$lab4kfix$2379                    lab4kfix
C:   0000057E  A$lab4kfix$2382                    lab4kfix
C:   0000057E  C$i2c.h$284$1$108                  lab4kfix
C:   00000580  A$lab4kfix$2385                    lab4kfix
C:   00000580  C$i2c.h$285$1$108                  lab4kfix
C:   00000580  XG$i2c_read_data$0$0               lab4kfix
C:   00000581  A$lab4kfix$2398                    lab4kfix
C:   00000581  C$i2c.h$294$1$108                  lab4kfix
C:   00000581  C$i2c.h$298$1$111                  lab4kfix
C:   00000581  G$Accel_Init$0$0                   lab4kfix
C:   00000581  _Accel_Init                        lab4kfix
C:   00000584  A$lab4kfix$2401                    lab4kfix
C:   00000584  C$i2c.h$300$1$111                  lab4kfix
C:   00000587  A$lab4kfix$2404                    lab4kfix
C:   00000587  C$i2c.h$301$1$111                  lab4kfix
C:   0000058A  A$lab4kfix$2407                    lab4kfix
C:   0000058A  C$i2c.h$302$1$111                  lab4kfix
C:   0000058D  A$lab4kfix$2410                    lab4kfix
C:   0000058D  C$i2c.h$304$1$111                  lab4kfix
C:   00000590  A$lab4kfix$2411                    lab4kfix
C:   00000593  A$lab4kfix$2412                    lab4kfix
C:   00000596  A$lab4kfix$2413                    lab4kfix
C:   00000599  A$lab4kfix$2414                    lab4kfix
C:   0000059C  A$lab4kfix$2415                    lab4kfix
C:   0000059F  A$lab4kfix$2416                    lab4kfix
C:   000005A2  A$lab4kfix$2419                    lab4kfix
C:   000005A2  C$i2c.h$310$1$111                  lab4kfix
C:   000005A2  XG$Accel_Init$0$0                  lab4kfix
ASxxxx Linker V03.00 + NoICE + sdld,  page 47.
Hexadecimal  [32-Bits]

Area                                    Addr        Size        Decimal Bytes (Attributes)
--------------------------------        ----        ----        ------- ----- ------------
CSEG                                000000D4    00001ADD =        6877. bytes (REL,CON,CODE)

      Value  Global                              Global Defined In Module
      -----  --------------------------------   ------------------------
C:   000005A3  A$lab4kfix$2432                    lab4kfix
C:   000005A3  C$i2c.h$313$1$111                  lab4kfix
C:   000005A3  C$i2c.h$318$1$113                  lab4kfix
C:   000005A3  G$Accel_Init_C$0$0                 lab4kfix
C:   000005A3  _Accel_Init_C                      lab4kfix
C:   000005A6  A$lab4kfix$2435                    lab4kfix
C:   000005A6  C$i2c.h$319$1$113                  lab4kfix
C:   000005A9  A$lab4kfix$2436                    lab4kfix
C:   000005AC  A$lab4kfix$2437                    lab4kfix
C:   000005AF  A$lab4kfix$2438                    lab4kfix
C:   000005B2  A$lab4kfix$2439                    lab4kfix
C:   000005B5  A$lab4kfix$2440                    lab4kfix
C:   000005B8  A$lab4kfix$2441                    lab4kfix
C:   000005BB  A$lab4kfix$2444                    lab4kfix
C:   000005BB  C$i2c.h$321$1$113                  lab4kfix
C:   000005BE  A$lab4kfix$2447                    lab4kfix
C:   000005BE  C$i2c.h$323$1$113                  lab4kfix
C:   000005C1  A$lab4kfix$2450                    lab4kfix
C:   000005C1  C$i2c.h$325$1$113                  lab4kfix
C:   000005C4  A$lab4kfix$2453                    lab4kfix
C:   000005C4  C$i2c.h$326$1$113                  lab4kfix
C:   000005C7  A$lab4kfix$2454                    lab4kfix
C:   000005CA  A$lab4kfix$2455                    lab4kfix
C:   000005CD  A$lab4kfix$2456                    lab4kfix
C:   000005D0  A$lab4kfix$2457                    lab4kfix
C:   000005D3  A$lab4kfix$2458                    lab4kfix
C:   000005D6  A$lab4kfix$2459                    lab4kfix
C:   000005D9  A$lab4kfix$2462                    lab4kfix
C:   000005D9  C$i2c.h$328$1$113                  lab4kfix
C:   000005D9  XG$Accel_Init_C$0$0                lab4kfix
C:   000005DA  A$lab4kfix$2475                    lab4kfix
C:   000005DA  C$lab4kfix.c$78$1$113              lab4kfix
C:   000005DA  C$lab4kfix.c$81$1$130              lab4kfix
C:   000005DA  G$main$0$0                         lab4kfix
C:   000005DA  _main                              lab4kfix
C:   000005DD  A$lab4kfix$2478                    lab4kfix
C:   000005DD  C$lab4kfix.c$82$1$130              lab4kfix
C:   000005E0  A$lab4kfix$2479                    lab4kfix
C:   000005E3  A$lab4kfix$2482                    lab4kfix
C:   000005E3  C$lab4kfix.c$83$1$130              lab4kfix
C:   000005E6  A$lab4kfix$2485                    lab4kfix
C:   000005E6  C$lab4kfix.c$84$1$130              lab4kfix
C:   000005E9  A$lab4kfix$2488                    lab4kfix
C:   000005E9  C$lab4kfix.c$85$1$130              lab4kfix
C:   000005EC  A$lab4kfix$2491                    lab4kfix
C:   000005EC  C$lab4kfix.c$86$1$130              lab4kfix
C:   000005EF  A$lab4kfix$2494                    lab4kfix
C:   000005EF  C$lab4kfix.c$87$1$130              lab4kfix
C:   000005F2  A$lab4kfix$2497                    lab4kfix
C:   000005F2  C$lab4kfix.c$90$1$130              lab4kfix
C:   000005F4  A$lab4kfix$2498                    lab4kfix
ASxxxx Linker V03.00 + NoICE + sdld,  page 48.
Hexadecimal  [32-Bits]

Area                                    Addr        Size        Decimal Bytes (Attributes)
--------------------------------        ----        ----        ------- ----- ------------
CSEG                                000000D4    00001ADD =        6877. bytes (REL,CON,CODE)

      Value  Global                              Global Defined In Module
      -----  --------------------------------   ------------------------
C:   000005F6  A$lab4kfix$2499                    lab4kfix
C:   000005F8  A$lab4kfix$2500                    lab4kfix
C:   000005FA  A$lab4kfix$2501                    lab4kfix
C:   000005FC  A$lab4kfix$2502                    lab4kfix
C:   000005FE  A$lab4kfix$2503                    lab4kfix
C:   00000601  A$lab4kfix$2504                    lab4kfix
C:   00000603  A$lab4kfix$2505                    lab4kfix
C:   00000605  A$lab4kfix$2506                    lab4kfix
C:   00000607  A$lab4kfix$2509                    lab4kfix
C:   00000607  C$lab4kfix.c$95$1$130              lab4kfix
C:   0000060A  A$lab4kfix$2510                    lab4kfix
C:   0000060B  A$lab4kfix$2511                    lab4kfix
C:   0000060D  A$lab4kfix$2512                    lab4kfix
C:   0000060E  A$lab4kfix$2513                    lab4kfix
C:   0000060F  A$lab4kfix$2514                    lab4kfix
C:   00000611  A$lab4kfix$2517                    lab4kfix
C:   00000611  C$lab4kfix.c$96$1$130              lab4kfix
C:   00000613  A$lab4kfix$2518                    lab4kfix
C:   00000615  A$lab4kfix$2519                    lab4kfix
C:   00000616  A$lab4kfix$2520                    lab4kfix
C:   00000617  A$lab4kfix$2521                    lab4kfix
C:   00000618  A$lab4kfix$2522                    lab4kfix
C:   0000061A  A$lab4kfix$2523                    lab4kfix
C:   0000061B  A$lab4kfix$2524                    lab4kfix
C:   0000061C  A$lab4kfix$2525                    lab4kfix
C:   0000061D  A$lab4kfix$2526                    lab4kfix
C:   0000061F  A$lab4kfix$2527                    lab4kfix
C:   00000620  A$lab4kfix$2528                    lab4kfix
C:   00000621  A$lab4kfix$2529                    lab4kfix
C:   00000622  A$lab4kfix$2530                    lab4kfix
C:   00000623  A$lab4kfix$2531                    lab4kfix
C:   00000624  A$lab4kfix$2532                    lab4kfix
C:   00000625  A$lab4kfix$2533                    lab4kfix
C:   00000627  A$lab4kfix$2534                    lab4kfix
C:   00000629  A$lab4kfix$2537                    lab4kfix
C:   00000629  C$lab4kfix.c$97$1$130              lab4kfix
C:   0000062C  A$lab4kfix$2538                    lab4kfix
C:   0000062D  A$lab4kfix$2539                    lab4kfix
C:   0000062F  A$lab4kfix$2540                    lab4kfix
C:   00000630  A$lab4kfix$2541                    lab4kfix
C:   00000631  A$lab4kfix$2542                    lab4kfix
C:   00000633  A$lab4kfix$2545                    lab4kfix
C:   00000633  C$lab4kfix.c$98$1$130              lab4kfix
C:   00000635  A$lab4kfix$2546                    lab4kfix
C:   00000637  A$lab4kfix$2547                    lab4kfix
C:   00000638  A$lab4kfix$2548                    lab4kfix
C:   00000639  A$lab4kfix$2549                    lab4kfix
C:   0000063A  A$lab4kfix$2550                    lab4kfix
C:   0000063C  A$lab4kfix$2551                    lab4kfix
C:   0000063D  A$lab4kfix$2552                    lab4kfix
C:   0000063E  A$lab4kfix$2553                    lab4kfix
ASxxxx Linker V03.00 + NoICE + sdld,  page 49.
Hexadecimal  [32-Bits]

Area                                    Addr        Size        Decimal Bytes (Attributes)
--------------------------------        ----        ----        ------- ----- ------------
CSEG                                000000D4    00001ADD =        6877. bytes (REL,CON,CODE)

      Value  Global                              Global Defined In Module
      -----  --------------------------------   ------------------------
C:   0000063F  A$lab4kfix$2554                    lab4kfix
C:   00000641  A$lab4kfix$2555                    lab4kfix
C:   00000642  A$lab4kfix$2556                    lab4kfix
C:   00000643  A$lab4kfix$2557                    lab4kfix
C:   00000644  A$lab4kfix$2558                    lab4kfix
C:   00000645  A$lab4kfix$2559                    lab4kfix
C:   00000646  A$lab4kfix$2560                    lab4kfix
C:   00000647  A$lab4kfix$2561                    lab4kfix
C:   00000648  A$lab4kfix$2562                    lab4kfix
C:   00000649  A$lab4kfix$2563                    lab4kfix
C:   0000064B  A$lab4kfix$2564                    lab4kfix
C:   0000064D  A$lab4kfix$2568                    lab4kfix
C:   0000064D  C$lab4kfix.c$101$1$130             lab4kfix
C:   0000064E  A$lab4kfix$2569                    lab4kfix
C:   00000650  A$lab4kfix$2570                    lab4kfix
C:   00000652  A$lab4kfix$2571                    lab4kfix
C:   00000654  A$lab4kfix$2572                    lab4kfix
C:   00000656  A$lab4kfix$2573                    lab4kfix
C:   00000658  A$lab4kfix$2576                    lab4kfix
C:   00000658  C$lab4kfix.c$103$1$130             lab4kfix
C:   0000065A  A$lab4kfix$2577                    lab4kfix
C:   0000065C  A$lab4kfix$2578                    lab4kfix
C:   0000065E  A$lab4kfix$2579                    lab4kfix
C:   00000660  A$lab4kfix$2580                    lab4kfix
C:   00000662  A$lab4kfix$2581                    lab4kfix
C:   00000664  A$lab4kfix$2582                    lab4kfix
C:   00000666  A$lab4kfix$2583                    lab4kfix
C:   00000668  A$lab4kfix$2584                    lab4kfix
C:   0000066B  A$lab4kfix$2585                    lab4kfix
C:   0000066D  A$lab4kfix$2586                    lab4kfix
C:   0000066F  A$lab4kfix$2587                    lab4kfix
C:   00000671  A$lab4kfix$2590                    lab4kfix
C:   00000671  C$lab4kfix.c$104$1$130             lab4kfix
C:   00000673  A$lab4kfix$2591                    lab4kfix
C:   00000675  A$lab4kfix$2592                    lab4kfix
C:   00000677  A$lab4kfix$2593                    lab4kfix
C:   00000679  A$lab4kfix$2594                    lab4kfix
C:   0000067B  A$lab4kfix$2595                    lab4kfix
C:   0000067D  A$lab4kfix$2596                    lab4kfix
C:   0000067F  A$lab4kfix$2597                    lab4kfix
C:   00000681  A$lab4kfix$2598                    lab4kfix
C:   00000684  A$lab4kfix$2599                    lab4kfix
C:   00000686  A$lab4kfix$2600                    lab4kfix
C:   00000688  A$lab4kfix$2601                    lab4kfix
C:   0000068A  A$lab4kfix$2604                    lab4kfix
C:   0000068A  C$lab4kfix.c$107$1$130             lab4kfix
C:   0000068D  A$lab4kfix$2607                    lab4kfix
C:   0000068D  C$lab4kfix.c$108$1$130             lab4kfix
C:   0000068F  A$lab4kfix$2608                    lab4kfix
C:   00000691  A$lab4kfix$2609                    lab4kfix
C:   00000693  A$lab4kfix$2610                    lab4kfix
ASxxxx Linker V03.00 + NoICE + sdld,  page 50.
Hexadecimal  [32-Bits]

Area                                    Addr        Size        Decimal Bytes (Attributes)
--------------------------------        ----        ----        ------- ----- ------------
CSEG                                000000D4    00001ADD =        6877. bytes (REL,CON,CODE)

      Value  Global                              Global Defined In Module
      -----  --------------------------------   ------------------------
C:   00000695  A$lab4kfix$2611                    lab4kfix
C:   00000697  A$lab4kfix$2612                    lab4kfix
C:   00000699  A$lab4kfix$2613                    lab4kfix
C:   0000069C  A$lab4kfix$2614                    lab4kfix
C:   0000069E  A$lab4kfix$2615                    lab4kfix
C:   000006A0  A$lab4kfix$2616                    lab4kfix
C:   000006A2  A$lab4kfix$2622                    lab4kfix
C:   000006A2  C$lab4kfix.c$110$1$130             lab4kfix
C:   000006A2  C$lab4kfix.c$112$2$131             lab4kfix
C:   000006A5  A$lab4kfix$2623                    lab4kfix
C:   000006A7  A$lab4kfix$2626                    lab4kfix
C:   000006A7  C$lab4kfix.c$114$1$130             lab4kfix
C:   000006A7  XG$main$0$0                        lab4kfix
C:   000006A8  A$lab4kfix$2639                    lab4kfix
C:   000006A8  C$lab4kfix.c$122$1$130             lab4kfix
C:   000006A8  C$lab4kfix.c$124$1$132             lab4kfix
C:   000006A8  G$Port_Init$0$0                    lab4kfix
C:   000006A8  _Port_Init                         lab4kfix
C:   000006AB  A$lab4kfix$2642                    lab4kfix
C:   000006AB  C$lab4kfix.c$125$1$132             lab4kfix
C:   000006AE  A$lab4kfix$2645                    lab4kfix
C:   000006AE  C$lab4kfix.c$126$1$132             lab4kfix
C:   000006B1  A$lab4kfix$2648                    lab4kfix
C:   000006B1  C$lab4kfix.c$127$1$132             lab4kfix
C:   000006B4  A$lab4kfix$2651                    lab4kfix
C:   000006B4  C$lab4kfix.c$128$1$132             lab4kfix
C:   000006B7  A$lab4kfix$2654                    lab4kfix
C:   000006B7  C$lab4kfix.c$129$1$132             lab4kfix
C:   000006BA  A$lab4kfix$2657                    lab4kfix
C:   000006BA  C$lab4kfix.c$130$1$132             lab4kfix
C:   000006BA  XG$Port_Init$0$0                   lab4kfix
C:   000006BB  A$lab4kfix$2670                    lab4kfix
C:   000006BB  C$lab4kfix.c$138$1$132             lab4kfix
C:   000006BB  C$lab4kfix.c$140$1$133             lab4kfix
C:   000006BB  G$XBR0_Init$0$0                    lab4kfix
C:   000006BB  _XBR0_Init                         lab4kfix
C:   000006BE  A$lab4kfix$2673                    lab4kfix
C:   000006BE  C$lab4kfix.c$142$1$133             lab4kfix
C:   000006BE  XG$XBR0_Init$0$0                   lab4kfix
C:   000006BF  A$lab4kfix$2686                    lab4kfix
C:   000006BF  C$lab4kfix.c$150$1$133             lab4kfix
C:   000006BF  C$lab4kfix.c$154$1$135             lab4kfix
C:   000006BF  G$PCA_Init$0$0                     lab4kfix
C:   000006BF  _PCA_Init                          lab4kfix
C:   000006C2  A$lab4kfix$2689                    lab4kfix
C:   000006C2  C$lab4kfix.c$155$1$135             lab4kfix
C:   000006C5  A$lab4kfix$2692                    lab4kfix
C:   000006C5  C$lab4kfix.c$156$1$135             lab4kfix
C:   000006C8  A$lab4kfix$2695                    lab4kfix
C:   000006C8  C$lab4kfix.c$157$1$135             lab4kfix
C:   000006CA  A$lab4kfix$2698                    lab4kfix
ASxxxx Linker V03.00 + NoICE + sdld,  page 51.
Hexadecimal  [32-Bits]

Area                                    Addr        Size        Decimal Bytes (Attributes)
--------------------------------        ----        ----        ------- ----- ------------
CSEG                                000000D4    00001ADD =        6877. bytes (REL,CON,CODE)

      Value  Global                              Global Defined In Module
      -----  --------------------------------   ------------------------
C:   000006CA  C$lab4kfix.c$159$1$135             lab4kfix
C:   000006CD  A$lab4kfix$2699                    lab4kfix
C:   000006D0  A$lab4kfix$2700                    lab4kfix
C:   000006D3  A$lab4kfix$2703                    lab4kfix
C:   000006D3  C$lab4kfix.c$160$1$135             lab4kfix
C:   000006D3  XG$PCA_Init$0$0                    lab4kfix
C:   000006D4  A$lab4kfix$2716                    lab4kfix
C:   000006D4  C$lab4kfix.c$164$1$135             lab4kfix
C:   000006D4  C$lab4kfix.c$166$1$137             lab4kfix
C:   000006D4  G$SMB_Init$0$0                     lab4kfix
C:   000006D4  _SMB_Init                          lab4kfix
C:   000006D7  A$lab4kfix$2719                    lab4kfix
C:   000006D7  C$lab4kfix.c$167$1$137             lab4kfix
C:   000006D9  A$lab4kfix$2722                    lab4kfix
C:   000006D9  C$lab4kfix.c$168$1$137             lab4kfix
C:   000006D9  XG$SMB_Init$0$0                    lab4kfix
C:   000006DA  A$lab4kfix$2735                    lab4kfix
C:   000006DA  C$lab4kfix.c$172$1$137             lab4kfix
C:   000006DA  C$lab4kfix.c$174$1$139             lab4kfix
C:   000006DA  G$ADC_Init$0$0                     lab4kfix
C:   000006DA  _ADC_Init                          lab4kfix
C:   000006DD  A$lab4kfix$2738                    lab4kfix
C:   000006DD  C$lab4kfix.c$175$1$139             lab4kfix
C:   000006E0  A$lab4kfix$2741                    lab4kfix
C:   000006E0  C$lab4kfix.c$176$1$139             lab4kfix
C:   000006E3  A$lab4kfix$2744                    lab4kfix
C:   000006E3  C$lab4kfix.c$177$1$139             lab4kfix
C:   000006E3  XG$ADC_Init$0$0                    lab4kfix
C:   000006E4  A$lab4kfix$2755                    lab4kfix
C:   000006E4  C$lab4kfix.c$186$1$139             lab4kfix
C:   000006E4  G$PCA_ISR$0$0                      lab4kfix
C:   000006E4  _PCA_ISR                           lab4kfix
C:   000006E6  A$lab4kfix$2756                    lab4kfix
C:   000006E8  A$lab4kfix$2759                    lab4kfix
C:   000006E8  C$lab4kfix.c$188$1$141             lab4kfix
C:   000006EA  A$lab4kfix$2760                    lab4kfix
C:   000006EB  A$lab4kfix$2761                    lab4kfix
C:   000006EE  A$lab4kfix$2762                    lab4kfix
C:   000006F0  A$lab4kfix$2766                    lab4kfix
C:   000006F0  C$lab4kfix.c$189$1$141             lab4kfix
C:   000006F3  A$lab4kfix$2769                    lab4kfix
C:   000006F3  C$lab4kfix.c$191$2$142             lab4kfix
C:   000006F5  A$lab4kfix$2772                    lab4kfix
C:   000006F5  C$lab4kfix.c$192$2$142             lab4kfix
C:   000006F7  A$lab4kfix$2775                    lab4kfix
C:   000006F7  C$lab4kfix.c$193$2$142             lab4kfix
C:   000006F9  A$lab4kfix$2776                    lab4kfix
C:   000006FA  A$lab4kfix$2777                    lab4kfix
C:   000006FD  A$lab4kfix$2778                    lab4kfix
C:   000006FF  A$lab4kfix$2782                    lab4kfix
C:   000006FF  C$lab4kfix.c$196$2$142             lab4kfix
ASxxxx Linker V03.00 + NoICE + sdld,  page 52.
Hexadecimal  [32-Bits]

Area                                    Addr        Size        Decimal Bytes (Attributes)
--------------------------------        ----        ----        ------- ----- ------------
CSEG                                000000D4    00001ADD =        6877. bytes (REL,CON,CODE)

      Value  Global                              Global Defined In Module
      -----  --------------------------------   ------------------------
C:   00000702  A$lab4kfix$2783                    lab4kfix
C:   00000705  A$lab4kfix$2786                    lab4kfix
C:   00000705  C$lab4kfix.c$198$2$142             lab4kfix
C:   00000707  A$lab4kfix$2789                    lab4kfix
C:   00000707  C$lab4kfix.c$200$2$142             lab4kfix
C:   00000709  A$lab4kfix$2790                    lab4kfix
C:   0000070B  A$lab4kfix$2791                    lab4kfix
C:   0000070D  A$lab4kfix$2794                    lab4kfix
C:   0000070D  C$lab4kfix.c$202$3$143             lab4kfix
C:   00000710  A$lab4kfix$2797                    lab4kfix
C:   00000710  C$lab4kfix.c$203$3$143             lab4kfix
C:   00000713  A$lab4kfix$2801                    lab4kfix
C:   00000713  C$lab4kfix.c$206$2$142             lab4kfix
C:   00000715  A$lab4kfix$2802                    lab4kfix
C:   00000717  A$lab4kfix$2803                    lab4kfix
C:   00000719  A$lab4kfix$2806                    lab4kfix
C:   00000719  C$lab4kfix.c$208$3$144             lab4kfix
C:   0000071C  A$lab4kfix$2809                    lab4kfix
C:   0000071C  C$lab4kfix.c$209$3$144             lab4kfix
C:   0000071F  A$lab4kfix$2813                    lab4kfix
C:   0000071F  C$lab4kfix.c$211$2$142             lab4kfix
C:   00000720  A$lab4kfix$2814                    lab4kfix
C:   00000722  A$lab4kfix$2815                    lab4kfix
C:   00000724  A$lab4kfix$2816                    lab4kfix
C:   00000726  A$lab4kfix$2817                    lab4kfix
C:   00000728  A$lab4kfix$2818                    lab4kfix
C:   0000072A  A$lab4kfix$2821                    lab4kfix
C:   0000072A  C$lab4kfix.c$213$3$145             lab4kfix
C:   0000072D  A$lab4kfix$2824                    lab4kfix
C:   0000072D  C$lab4kfix.c$214$3$145             lab4kfix
C:   0000072E  A$lab4kfix$2825                    lab4kfix
C:   00000730  A$lab4kfix$2826                    lab4kfix
C:   00000732  A$lab4kfix$2830                    lab4kfix
C:   00000732  C$lab4kfix.c$218$1$141             lab4kfix
C:   00000735  A$lab4kfix$2831                    lab4kfix
C:   00000737  A$lab4kfix$2832                    lab4kfix
C:   00000739  A$lab4kfix$2835                    lab4kfix
C:   00000739  C$lab4kfix.c$219$1$141             lab4kfix
C:   00000739  XG$PCA_ISR$0$0                     lab4kfix
C:   0000073A  A$lab4kfix$2853                    lab4kfix
C:   0000073A  C$lab4kfix.c$221$1$141             lab4kfix
C:   0000073A  C$lab4kfix.c$223$3$148             lab4kfix
C:   0000073A  G$CarControl$0$0                   lab4kfix
C:   0000073A  _CarControl                        lab4kfix
C:   0000073D  A$lab4kfix$2854                    lab4kfix
C:   00000740  A$lab4kfix$2858                    lab4kfix
C:   00000740  C$lab4kfix.c$225$2$147             lab4kfix
C:   00000743  A$lab4kfix$2859                    lab4kfix
C:   00000746  A$lab4kfix$2862                    lab4kfix
C:   00000746  C$lab4kfix.c$226$2$147             lab4kfix
C:   00000749  A$lab4kfix$2863                    lab4kfix
ASxxxx Linker V03.00 + NoICE + sdld,  page 53.
Hexadecimal  [32-Bits]

Area                                    Addr        Size        Decimal Bytes (Attributes)
--------------------------------        ----        ----        ------- ----- ------------
CSEG                                000000D4    00001ADD =        6877. bytes (REL,CON,CODE)

      Value  Global                              Global Defined In Module
      -----  --------------------------------   ------------------------
C:   0000074C  A$lab4kfix$2864                    lab4kfix
C:   0000074F  A$lab4kfix$2865                    lab4kfix
C:   00000752  A$lab4kfix$2868                    lab4kfix
C:   00000752  C$lab4kfix.c$227$2$147             lab4kfix
C:   00000754  A$lab4kfix$2869                    lab4kfix
C:   00000756  A$lab4kfix$2870                    lab4kfix
C:   00000758  A$lab4kfix$2871                    lab4kfix
C:   0000075A  A$lab4kfix$2872                    lab4kfix
C:   0000075C  A$lab4kfix$2873                    lab4kfix
C:   0000075E  A$lab4kfix$2874                    lab4kfix
C:   00000760  A$lab4kfix$2875                    lab4kfix
C:   00000762  A$lab4kfix$2876                    lab4kfix
C:   00000765  A$lab4kfix$2877                    lab4kfix
C:   00000767  A$lab4kfix$2878                    lab4kfix
C:   00000769  A$lab4kfix$2879                    lab4kfix
C:   0000076B  A$lab4kfix$2882                    lab4kfix
C:   0000076B  C$lab4kfix.c$229$2$147             lab4kfix
C:   0000076E  A$lab4kfix$2885                    lab4kfix
C:   0000076E  C$lab4kfix.c$230$2$147             lab4kfix
C:   00000770  A$lab4kfix$2886                    lab4kfix
C:   00000772  A$lab4kfix$2889                    lab4kfix
C:   00000772  C$lab4kfix.c$232$3$148             lab4kfix
C:   00000775  A$lab4kfix$2890                    lab4kfix
C:   00000777  A$lab4kfix$2891                    lab4kfix
C:   00000779  A$lab4kfix$2894                    lab4kfix
C:   00000779  C$lab4kfix.c$233$3$148             lab4kfix
C:   0000077C  A$lab4kfix$2897                    lab4kfix
C:   0000077C  C$lab4kfix.c$234$3$148             lab4kfix
C:   0000077F  A$lab4kfix$2898                    lab4kfix
C:   00000782  A$lab4kfix$2899                    lab4kfix
C:   00000785  A$lab4kfix$2900                    lab4kfix
C:   00000788  A$lab4kfix$2901                    lab4kfix
C:   0000078B  A$lab4kfix$2902                    lab4kfix
C:   0000078E  A$lab4kfix$2903                    lab4kfix
C:   00000791  A$lab4kfix$2906                    lab4kfix
C:   00000791  C$lab4kfix.c$235$3$148             lab4kfix
C:   00000794  A$lab4kfix$2909                    lab4kfix
C:   00000794  C$lab4kfix.c$236$3$148             lab4kfix
C:   00000796  A$lab4kfix$2910                    lab4kfix
C:   00000798  A$lab4kfix$2911                    lab4kfix
C:   0000079A  A$lab4kfix$2912                    lab4kfix
C:   0000079C  A$lab4kfix$2913                    lab4kfix
C:   0000079E  A$lab4kfix$2914                    lab4kfix
C:   000007A0  A$lab4kfix$2915                    lab4kfix
C:   000007A2  A$lab4kfix$2916                    lab4kfix
C:   000007A4  A$lab4kfix$2917                    lab4kfix
C:   000007A6  A$lab4kfix$2918                    lab4kfix
C:   000007A8  A$lab4kfix$2919                    lab4kfix
C:   000007AB  A$lab4kfix$2920                    lab4kfix
C:   000007AD  A$lab4kfix$2921                    lab4kfix
C:   000007AF  A$lab4kfix$2922                    lab4kfix
ASxxxx Linker V03.00 + NoICE + sdld,  page 54.
Hexadecimal  [32-Bits]

Area                                    Addr        Size        Decimal Bytes (Attributes)
--------------------------------        ----        ----        ------- ----- ------------
CSEG                                000000D4    00001ADD =        6877. bytes (REL,CON,CODE)

      Value  Global                              Global Defined In Module
      -----  --------------------------------   ------------------------
C:   000007B1  A$lab4kfix$2925                    lab4kfix
C:   000007B1  C$lab4kfix.c$237$3$148             lab4kfix
C:   000007B3  A$lab4kfix$2926                    lab4kfix
C:   000007B5  A$lab4kfix$2927                    lab4kfix
C:   000007B7  A$lab4kfix$2930                    lab4kfix
C:   000007B7  C$lab4kfix.c$239$4$149             lab4kfix
C:   000007B9  A$lab4kfix$2934                    lab4kfix
C:   000007B9  C$lab4kfix.c$241$3$148             lab4kfix
C:   000007BC  A$lab4kfix$2937                    lab4kfix
C:   000007BC  C$lab4kfix.c$243$4$150             lab4kfix
C:   000007BF  A$lab4kfix$2938                    lab4kfix
C:   000007C0  A$lab4kfix$2939                    lab4kfix
C:   000007C2  A$lab4kfix$2940                    lab4kfix
C:   000007C3  A$lab4kfix$2941                    lab4kfix
C:   000007C4  A$lab4kfix$2942                    lab4kfix
C:   000007C6  A$lab4kfix$2945                    lab4kfix
C:   000007C6  C$lab4kfix.c$244$4$150             lab4kfix
C:   000007C9  A$lab4kfix$2946                    lab4kfix
C:   000007CA  A$lab4kfix$2947                    lab4kfix
C:   000007CC  A$lab4kfix$2948                    lab4kfix
C:   000007CD  A$lab4kfix$2949                    lab4kfix
C:   000007CE  A$lab4kfix$2950                    lab4kfix
C:   000007D0  A$lab4kfix$2953                    lab4kfix
C:   000007D0  C$lab4kfix.c$245$4$150             lab4kfix
C:   000007D2  A$lab4kfix$2956                    lab4kfix
C:   000007D2  C$lab4kfix.c$246$4$150             lab4kfix
C:   000007D5  A$lab4kfix$2960                    lab4kfix
C:   000007D5  C$lab4kfix.c$250$2$147             lab4kfix
C:   000007D7  A$lab4kfix$2961                    lab4kfix
C:   000007D9  A$lab4kfix$2962                    lab4kfix
C:   000007DB  A$lab4kfix$2963                    lab4kfix
C:   000007DD  A$lab4kfix$2964                    lab4kfix
C:   000007DF  A$lab4kfix$2967                    lab4kfix
C:   000007DF  C$lab4kfix.c$252$3$151             lab4kfix
C:   000007E1  A$lab4kfix$2970                    lab4kfix
C:   000007E1  C$lab4kfix.c$253$3$151             lab4kfix
C:   000007E4  A$lab4kfix$2971                    lab4kfix
C:   000007E7  A$lab4kfix$2972                    lab4kfix
C:   000007EA  A$lab4kfix$2975                    lab4kfix
C:   000007EA  C$lab4kfix.c$254$3$151             lab4kfix
C:   000007EC  A$lab4kfix$2976                    lab4kfix
C:   000007EE  A$lab4kfix$2977                    lab4kfix
C:   000007F0  A$lab4kfix$2978                    lab4kfix
C:   000007F2  A$lab4kfix$2979                    lab4kfix
C:   000007F4  A$lab4kfix$2980                    lab4kfix
C:   000007F6  A$lab4kfix$2981                    lab4kfix
C:   000007F8  A$lab4kfix$2982                    lab4kfix
C:   000007FA  A$lab4kfix$2983                    lab4kfix
C:   000007FD  A$lab4kfix$2984                    lab4kfix
C:   000007FF  A$lab4kfix$2985                    lab4kfix
C:   00000801  A$lab4kfix$2986                    lab4kfix
ASxxxx Linker V03.00 + NoICE + sdld,  page 55.
Hexadecimal  [32-Bits]

Area                                    Addr        Size        Decimal Bytes (Attributes)
--------------------------------        ----        ----        ------- ----- ------------
CSEG                                000000D4    00001ADD =        6877. bytes (REL,CON,CODE)

      Value  Global                              Global Defined In Module
      -----  --------------------------------   ------------------------
C:   00000803  A$lab4kfix$2989                    lab4kfix
C:   00000803  C$lab4kfix.c$255$3$151             lab4kfix
C:   00000806  A$lab4kfix$2992                    lab4kfix
C:   00000806  C$lab4kfix.c$256$3$151             lab4kfix
C:   00000809  A$lab4kfix$2995                    lab4kfix
C:   00000809  C$lab4kfix.c$258$4$152             lab4kfix
C:   0000080C  A$lab4kfix$2996                    lab4kfix
C:   0000080D  A$lab4kfix$2997                    lab4kfix
C:   0000080F  A$lab4kfix$2998                    lab4kfix
C:   00000810  A$lab4kfix$2999                    lab4kfix
C:   00000811  A$lab4kfix$3000                    lab4kfix
C:   00000813  A$lab4kfix$3003                    lab4kfix
C:   00000813  C$lab4kfix.c$259$4$152             lab4kfix
C:   00000816  A$lab4kfix$3004                    lab4kfix
C:   00000817  A$lab4kfix$3005                    lab4kfix
C:   00000819  A$lab4kfix$3006                    lab4kfix
C:   0000081A  A$lab4kfix$3007                    lab4kfix
C:   0000081B  A$lab4kfix$3008                    lab4kfix
C:   0000081D  A$lab4kfix$3011                    lab4kfix
C:   0000081D  C$lab4kfix.c$260$4$152             lab4kfix
C:   0000081F  A$lab4kfix$3014                    lab4kfix
C:   0000081F  C$lab4kfix.c$261$4$152             lab4kfix
C:   00000821  A$lab4kfix$3018                    lab4kfix
C:   00000821  C$lab4kfix.c$265$2$147             lab4kfix
C:   00000823  A$lab4kfix$3019                    lab4kfix
C:   00000825  A$lab4kfix$3020                    lab4kfix
C:   00000828  A$lab4kfix$3024                    lab4kfix
C:   00000828  C$lab4kfix.c$267$3$153             lab4kfix
C:   0000082B  A$lab4kfix$3027                    lab4kfix
C:   0000082B  C$lab4kfix.c$268$3$153             lab4kfix
C:   0000082D  A$lab4kfix$3028                    lab4kfix
C:   0000082F  A$lab4kfix$3029                    lab4kfix
C:   00000831  A$lab4kfix$3030                    lab4kfix
C:   00000833  A$lab4kfix$3031                    lab4kfix
C:   00000835  A$lab4kfix$3032                    lab4kfix
C:   00000837  A$lab4kfix$3033                    lab4kfix
C:   00000839  A$lab4kfix$3034                    lab4kfix
C:   0000083B  A$lab4kfix$3035                    lab4kfix
C:   0000083D  A$lab4kfix$3036                    lab4kfix
C:   0000083F  A$lab4kfix$3037                    lab4kfix
C:   00000842  A$lab4kfix$3038                    lab4kfix
C:   00000844  A$lab4kfix$3039                    lab4kfix
C:   00000846  A$lab4kfix$3040                    lab4kfix
C:   00000848  A$lab4kfix$3043                    lab4kfix
C:   00000848  C$lab4kfix.c$269$3$153             lab4kfix
C:   0000084A  A$lab4kfix$3044                    lab4kfix
C:   0000084C  A$lab4kfix$3045                    lab4kfix
C:   0000084E  A$lab4kfix$3046                    lab4kfix
C:   00000850  A$lab4kfix$3047                    lab4kfix
C:   00000852  A$lab4kfix$3048                    lab4kfix
C:   00000854  A$lab4kfix$3049                    lab4kfix
ASxxxx Linker V03.00 + NoICE + sdld,  page 56.
Hexadecimal  [32-Bits]

Area                                    Addr        Size        Decimal Bytes (Attributes)
--------------------------------        ----        ----        ------- ----- ------------
CSEG                                000000D4    00001ADD =        6877. bytes (REL,CON,CODE)

      Value  Global                              Global Defined In Module
      -----  --------------------------------   ------------------------
C:   00000856  A$lab4kfix$3050                    lab4kfix
C:   00000858  A$lab4kfix$3051                    lab4kfix
C:   0000085A  A$lab4kfix$3052                    lab4kfix
C:   0000085C  A$lab4kfix$3053                    lab4kfix
C:   0000085E  A$lab4kfix$3054                    lab4kfix
C:   00000860  A$lab4kfix$3055                    lab4kfix
C:   00000863  A$lab4kfix$3056                    lab4kfix
C:   00000865  A$lab4kfix$3057                    lab4kfix
C:   00000867  A$lab4kfix$3058                    lab4kfix
C:   00000869  A$lab4kfix$3061                    lab4kfix
C:   00000869  C$lab4kfix.c$270$3$153             lab4kfix
C:   0000086C  A$lab4kfix$3062                    lab4kfix
C:   0000086F  A$lab4kfix$3069                    lab4kfix
C:   0000086F  C$lab4kfix.c$275$1$146             lab4kfix
C:   0000086F  C$lab4kfix.c$277$2$154             lab4kfix
C:   00000872  A$lab4kfix$3070                    lab4kfix
C:   00000875  A$lab4kfix$3073                    lab4kfix
C:   00000875  C$lab4kfix.c$278$2$154             lab4kfix
C:   00000878  A$lab4kfix$3074                    lab4kfix
C:   0000087B  A$lab4kfix$3075                    lab4kfix
C:   0000087E  A$lab4kfix$3076                    lab4kfix
C:   00000881  A$lab4kfix$3079                    lab4kfix
C:   00000881  C$lab4kfix.c$279$2$154             lab4kfix
C:   00000883  A$lab4kfix$3080                    lab4kfix
C:   00000885  A$lab4kfix$3081                    lab4kfix
C:   00000887  A$lab4kfix$3082                    lab4kfix
C:   00000889  A$lab4kfix$3083                    lab4kfix
C:   0000088B  A$lab4kfix$3084                    lab4kfix
C:   0000088D  A$lab4kfix$3085                    lab4kfix
C:   0000088F  A$lab4kfix$3086                    lab4kfix
C:   00000891  A$lab4kfix$3087                    lab4kfix
C:   00000894  A$lab4kfix$3088                    lab4kfix
C:   00000896  A$lab4kfix$3089                    lab4kfix
C:   00000898  A$lab4kfix$3090                    lab4kfix
C:   0000089A  A$lab4kfix$3093                    lab4kfix
C:   0000089A  C$lab4kfix.c$281$2$154             lab4kfix
C:   0000089C  A$lab4kfix$3094                    lab4kfix
C:   0000089E  A$lab4kfix$3095                    lab4kfix
C:   000008A1  A$lab4kfix$3098                    lab4kfix
C:   000008A1  C$lab4kfix.c$283$3$155             lab4kfix
C:   000008A4  A$lab4kfix$3099                    lab4kfix
C:   000008A6  A$lab4kfix$3100                    lab4kfix
C:   000008A8  A$lab4kfix$3103                    lab4kfix
C:   000008A8  C$lab4kfix.c$284$3$155             lab4kfix
C:   000008AB  A$lab4kfix$3106                    lab4kfix
C:   000008AB  C$lab4kfix.c$285$3$155             lab4kfix
C:   000008AE  A$lab4kfix$3107                    lab4kfix
C:   000008B1  A$lab4kfix$3108                    lab4kfix
C:   000008B4  A$lab4kfix$3109                    lab4kfix
C:   000008B7  A$lab4kfix$3110                    lab4kfix
C:   000008BA  A$lab4kfix$3111                    lab4kfix
ASxxxx Linker V03.00 + NoICE + sdld,  page 57.
Hexadecimal  [32-Bits]

Area                                    Addr        Size        Decimal Bytes (Attributes)
--------------------------------        ----        ----        ------- ----- ------------
CSEG                                000000D4    00001ADD =        6877. bytes (REL,CON,CODE)

      Value  Global                              Global Defined In Module
      -----  --------------------------------   ------------------------
C:   000008BD  A$lab4kfix$3112                    lab4kfix
C:   000008C0  A$lab4kfix$3115                    lab4kfix
C:   000008C0  C$lab4kfix.c$286$3$155             lab4kfix
C:   000008C3  A$lab4kfix$3118                    lab4kfix
C:   000008C3  C$lab4kfix.c$287$3$155             lab4kfix
C:   000008C5  A$lab4kfix$3119                    lab4kfix
C:   000008C7  A$lab4kfix$3120                    lab4kfix
C:   000008C9  A$lab4kfix$3121                    lab4kfix
C:   000008CB  A$lab4kfix$3122                    lab4kfix
C:   000008CD  A$lab4kfix$3123                    lab4kfix
C:   000008CF  A$lab4kfix$3124                    lab4kfix
C:   000008D1  A$lab4kfix$3125                    lab4kfix
C:   000008D3  A$lab4kfix$3126                    lab4kfix
C:   000008D5  A$lab4kfix$3127                    lab4kfix
C:   000008D7  A$lab4kfix$3128                    lab4kfix
C:   000008DA  A$lab4kfix$3129                    lab4kfix
C:   000008DC  A$lab4kfix$3130                    lab4kfix
C:   000008DE  A$lab4kfix$3131                    lab4kfix
C:   000008E0  A$lab4kfix$3134                    lab4kfix
C:   000008E0  C$lab4kfix.c$288$3$155             lab4kfix
C:   000008E2  A$lab4kfix$3135                    lab4kfix
C:   000008E4  A$lab4kfix$3136                    lab4kfix
C:   000008E6  A$lab4kfix$3139                    lab4kfix
C:   000008E6  C$lab4kfix.c$290$4$156             lab4kfix
C:   000008E8  A$lab4kfix$3142                    lab4kfix
C:   000008E8  C$lab4kfix.c$291$4$156             lab4kfix
C:   000008EB  A$lab4kfix$3143                    lab4kfix
C:   000008ED  A$lab4kfix$3147                    lab4kfix
C:   000008ED  C$lab4kfix.c$294$2$154             lab4kfix
C:   000008F0  A$lab4kfix$3150                    lab4kfix
C:   000008F0  C$lab4kfix.c$296$3$157             lab4kfix
C:   000008F3  A$lab4kfix$3151                    lab4kfix
C:   000008F4  A$lab4kfix$3152                    lab4kfix
C:   000008F6  A$lab4kfix$3153                    lab4kfix
C:   000008F7  A$lab4kfix$3154                    lab4kfix
C:   000008F8  A$lab4kfix$3155                    lab4kfix
C:   000008FA  A$lab4kfix$3158                    lab4kfix
C:   000008FA  C$lab4kfix.c$297$3$157             lab4kfix
C:   000008FD  A$lab4kfix$3159                    lab4kfix
C:   000008FE  A$lab4kfix$3160                    lab4kfix
C:   00000900  A$lab4kfix$3161                    lab4kfix
C:   00000901  A$lab4kfix$3162                    lab4kfix
C:   00000902  A$lab4kfix$3163                    lab4kfix
C:   00000904  A$lab4kfix$3166                    lab4kfix
C:   00000904  C$lab4kfix.c$298$3$157             lab4kfix
C:   00000906  A$lab4kfix$3170                    lab4kfix
C:   00000906  C$lab4kfix.c$301$2$154             lab4kfix
C:   00000908  A$lab4kfix$3171                    lab4kfix
C:   0000090A  A$lab4kfix$3172                    lab4kfix
C:   0000090C  A$lab4kfix$3173                    lab4kfix
C:   0000090E  A$lab4kfix$3174                    lab4kfix
ASxxxx Linker V03.00 + NoICE + sdld,  page 58.
Hexadecimal  [32-Bits]

Area                                    Addr        Size        Decimal Bytes (Attributes)
--------------------------------        ----        ----        ------- ----- ------------
CSEG                                000000D4    00001ADD =        6877. bytes (REL,CON,CODE)

      Value  Global                              Global Defined In Module
      -----  --------------------------------   ------------------------
C:   00000910  A$lab4kfix$3175                    lab4kfix
C:   00000913  A$lab4kfix$3178                    lab4kfix
C:   00000913  C$lab4kfix.c$303$3$158             lab4kfix
C:   00000915  A$lab4kfix$3181                    lab4kfix
C:   00000915  C$lab4kfix.c$304$3$158             lab4kfix
C:   00000918  A$lab4kfix$3182                    lab4kfix
C:   0000091B  A$lab4kfix$3183                    lab4kfix
C:   0000091E  A$lab4kfix$3186                    lab4kfix
C:   0000091E  C$lab4kfix.c$305$3$158             lab4kfix
C:   00000920  A$lab4kfix$3187                    lab4kfix
C:   00000922  A$lab4kfix$3188                    lab4kfix
C:   00000924  A$lab4kfix$3189                    lab4kfix
C:   00000926  A$lab4kfix$3190                    lab4kfix
C:   00000928  A$lab4kfix$3191                    lab4kfix
C:   0000092A  A$lab4kfix$3192                    lab4kfix
C:   0000092C  A$lab4kfix$3193                    lab4kfix
C:   0000092E  A$lab4kfix$3194                    lab4kfix
C:   00000931  A$lab4kfix$3195                    lab4kfix
C:   00000933  A$lab4kfix$3196                    lab4kfix
C:   00000935  A$lab4kfix$3197                    lab4kfix
C:   00000937  A$lab4kfix$3200                    lab4kfix
C:   00000937  C$lab4kfix.c$306$3$158             lab4kfix
C:   0000093A  A$lab4kfix$3203                    lab4kfix
C:   0000093A  C$lab4kfix.c$307$3$158             lab4kfix
C:   0000093D  A$lab4kfix$3204                    lab4kfix
C:   0000093F  A$lab4kfix$3208                    lab4kfix
C:   0000093F  C$lab4kfix.c$309$2$154             lab4kfix
C:   00000942  A$lab4kfix$3211                    lab4kfix
C:   00000942  C$lab4kfix.c$311$3$159             lab4kfix
C:   00000945  A$lab4kfix$3212                    lab4kfix
C:   00000946  A$lab4kfix$3213                    lab4kfix
C:   00000948  A$lab4kfix$3214                    lab4kfix
C:   00000949  A$lab4kfix$3215                    lab4kfix
C:   0000094A  A$lab4kfix$3216                    lab4kfix
C:   0000094C  A$lab4kfix$3219                    lab4kfix
C:   0000094C  C$lab4kfix.c$312$3$159             lab4kfix
C:   0000094F  A$lab4kfix$3220                    lab4kfix
C:   00000950  A$lab4kfix$3221                    lab4kfix
C:   00000952  A$lab4kfix$3222                    lab4kfix
C:   00000953  A$lab4kfix$3223                    lab4kfix
C:   00000954  A$lab4kfix$3224                    lab4kfix
C:   00000956  A$lab4kfix$3227                    lab4kfix
C:   00000956  C$lab4kfix.c$313$3$159             lab4kfix
C:   00000958  A$lab4kfix$3231                    lab4kfix
C:   00000958  C$lab4kfix.c$317$2$154             lab4kfix
C:   0000095A  A$lab4kfix$3232                    lab4kfix
C:   0000095C  A$lab4kfix$3235                    lab4kfix
C:   0000095C  C$lab4kfix.c$319$3$160             lab4kfix
C:   0000095F  A$lab4kfix$3238                    lab4kfix
C:   0000095F  C$lab4kfix.c$320$3$160             lab4kfix
C:   00000961  A$lab4kfix$3239                    lab4kfix
ASxxxx Linker V03.00 + NoICE + sdld,  page 59.
Hexadecimal  [32-Bits]

Area                                    Addr        Size        Decimal Bytes (Attributes)
--------------------------------        ----        ----        ------- ----- ------------
CSEG                                000000D4    00001ADD =        6877. bytes (REL,CON,CODE)

      Value  Global                              Global Defined In Module
      -----  --------------------------------   ------------------------
C:   00000963  A$lab4kfix$3240                    lab4kfix
C:   00000965  A$lab4kfix$3241                    lab4kfix
C:   00000967  A$lab4kfix$3242                    lab4kfix
C:   00000969  A$lab4kfix$3243                    lab4kfix
C:   0000096B  A$lab4kfix$3244                    lab4kfix
C:   0000096D  A$lab4kfix$3245                    lab4kfix
C:   0000096F  A$lab4kfix$3246                    lab4kfix
C:   00000971  A$lab4kfix$3247                    lab4kfix
C:   00000973  A$lab4kfix$3248                    lab4kfix
C:   00000976  A$lab4kfix$3249                    lab4kfix
C:   00000978  A$lab4kfix$3250                    lab4kfix
C:   0000097A  A$lab4kfix$3251                    lab4kfix
C:   0000097C  A$lab4kfix$3254                    lab4kfix
C:   0000097C  C$lab4kfix.c$321$3$160             lab4kfix
C:   0000097E  A$lab4kfix$3255                    lab4kfix
C:   00000980  A$lab4kfix$3256                    lab4kfix
C:   00000982  A$lab4kfix$3257                    lab4kfix
C:   00000984  A$lab4kfix$3258                    lab4kfix
C:   00000986  A$lab4kfix$3259                    lab4kfix
C:   00000988  A$lab4kfix$3260                    lab4kfix
C:   0000098A  A$lab4kfix$3261                    lab4kfix
C:   0000098C  A$lab4kfix$3262                    lab4kfix
C:   0000098E  A$lab4kfix$3263                    lab4kfix
C:   00000990  A$lab4kfix$3264                    lab4kfix
C:   00000992  A$lab4kfix$3265                    lab4kfix
C:   00000994  A$lab4kfix$3266                    lab4kfix
C:   00000997  A$lab4kfix$3267                    lab4kfix
C:   00000999  A$lab4kfix$3268                    lab4kfix
C:   0000099B  A$lab4kfix$3269                    lab4kfix
C:   0000099D  A$lab4kfix$3272                    lab4kfix
C:   0000099D  C$lab4kfix.c$322$3$160             lab4kfix
C:   000009A0  A$lab4kfix$3276                    lab4kfix
C:   000009A0  C$lab4kfix.c$327$2$154             lab4kfix
C:   000009A3  A$lab4kfix$3279                    lab4kfix
C:   000009A3  C$lab4kfix.c$330$1$146             lab4kfix
C:   000009A6  A$lab4kfix$3280                    lab4kfix
C:   000009A9  A$lab4kfix$3284                    lab4kfix
C:   000009A9  C$lab4kfix.c$332$1$146             lab4kfix
C:   000009A9  XG$CarControl$0$0                  lab4kfix
C:   000009AA  A$lab4kfix$3299                    lab4kfix
C:   000009AA  C$lab4kfix.c$334$1$146             lab4kfix
C:   000009AA  C$lab4kfix.c$338$1$161             lab4kfix
C:   000009AA  G$Set_Pulsewidth$0$0               lab4kfix
C:   000009AA  _Set_Pulsewidth                    lab4kfix
C:   000009AD  A$lab4kfix$3300                    lab4kfix
C:   000009AF  A$lab4kfix$3303                    lab4kfix
C:   000009AF  C$lab4kfix.c$339$1$161             lab4kfix
C:   000009B2  A$lab4kfix$3306                    lab4kfix
C:   000009B2  C$lab4kfix.c$341$2$162             lab4kfix
C:   000009B4  A$lab4kfix$3307                    lab4kfix
C:   000009B6  A$lab4kfix$3308                    lab4kfix
ASxxxx Linker V03.00 + NoICE + sdld,  page 60.
Hexadecimal  [32-Bits]

Area                                    Addr        Size        Decimal Bytes (Attributes)
--------------------------------        ----        ----        ------- ----- ------------
CSEG                                000000D4    00001ADD =        6877. bytes (REL,CON,CODE)

      Value  Global                              Global Defined In Module
      -----  --------------------------------   ------------------------
C:   000009B8  A$lab4kfix$3309                    lab4kfix
C:   000009B9  A$lab4kfix$3310                    lab4kfix
C:   000009BB  A$lab4kfix$3311                    lab4kfix
C:   000009BD  A$lab4kfix$3314                    lab4kfix
C:   000009BD  C$lab4kfix.c$342$2$162             lab4kfix
C:   000009C0  A$lab4kfix$3315                    lab4kfix
C:   000009C1  A$lab4kfix$3316                    lab4kfix
C:   000009C2  A$lab4kfix$3317                    lab4kfix
C:   000009C3  A$lab4kfix$3318                    lab4kfix
C:   000009C4  A$lab4kfix$3319                    lab4kfix
C:   000009C5  A$lab4kfix$3320                    lab4kfix
C:   000009C6  A$lab4kfix$3321                    lab4kfix
C:   000009C7  A$lab4kfix$3322                    lab4kfix
C:   000009C9  A$lab4kfix$3323                    lab4kfix
C:   000009CA  A$lab4kfix$3324                    lab4kfix
C:   000009CC  A$lab4kfix$3325                    lab4kfix
C:   000009CE  A$lab4kfix$3328                    lab4kfix
C:   000009CE  C$lab4kfix.c$343$2$162             lab4kfix
C:   000009D1  A$lab4kfix$3329                    lab4kfix
C:   000009D2  A$lab4kfix$3330                    lab4kfix
C:   000009D4  A$lab4kfix$3331                    lab4kfix
C:   000009D5  A$lab4kfix$3332                    lab4kfix
C:   000009D6  A$lab4kfix$3333                    lab4kfix
C:   000009D8  A$lab4kfix$3334                    lab4kfix
C:   000009DA  A$lab4kfix$3338                    lab4kfix
C:   000009DA  C$lab4kfix.c$345$1$161             lab4kfix
C:   000009DD  A$lab4kfix$3341                    lab4kfix
C:   000009DD  C$lab4kfix.c$347$2$163             lab4kfix
C:   000009DF  A$lab4kfix$3342                    lab4kfix
C:   000009E1  A$lab4kfix$3343                    lab4kfix
C:   000009E3  A$lab4kfix$3344                    lab4kfix
C:   000009E5  A$lab4kfix$3345                    lab4kfix
C:   000009E7  A$lab4kfix$3346                    lab4kfix
C:   000009E9  A$lab4kfix$3349                    lab4kfix
C:   000009E9  C$lab4kfix.c$348$2$163             lab4kfix
C:   000009EC  A$lab4kfix$3350                    lab4kfix
C:   000009ED  A$lab4kfix$3351                    lab4kfix
C:   000009EE  A$lab4kfix$3352                    lab4kfix
C:   000009EF  A$lab4kfix$3353                    lab4kfix
C:   000009F0  A$lab4kfix$3354                    lab4kfix
C:   000009F1  A$lab4kfix$3355                    lab4kfix
C:   000009F2  A$lab4kfix$3356                    lab4kfix
C:   000009F4  A$lab4kfix$3357                    lab4kfix
C:   000009F5  A$lab4kfix$3358                    lab4kfix
C:   000009F7  A$lab4kfix$3359                    lab4kfix
C:   000009F8  A$lab4kfix$3360                    lab4kfix
C:   000009FA  A$lab4kfix$3363                    lab4kfix
C:   000009FA  C$lab4kfix.c$349$2$163             lab4kfix
C:   000009FD  A$lab4kfix$3364                    lab4kfix
C:   000009FE  A$lab4kfix$3365                    lab4kfix
C:   00000A00  A$lab4kfix$3366                    lab4kfix
ASxxxx Linker V03.00 + NoICE + sdld,  page 61.
Hexadecimal  [32-Bits]

Area                                    Addr        Size        Decimal Bytes (Attributes)
--------------------------------        ----        ----        ------- ----- ------------
CSEG                                000000D4    00001ADD =        6877. bytes (REL,CON,CODE)

      Value  Global                              Global Defined In Module
      -----  --------------------------------   ------------------------
C:   00000A01  A$lab4kfix$3367                    lab4kfix
C:   00000A02  A$lab4kfix$3368                    lab4kfix
C:   00000A04  A$lab4kfix$3372                    lab4kfix
C:   00000A04  C$lab4kfix.c$351$1$161             lab4kfix
C:   00000A07  A$lab4kfix$3375                    lab4kfix
C:   00000A07  C$lab4kfix.c$353$2$164             lab4kfix
C:   00000A09  A$lab4kfix$3376                    lab4kfix
C:   00000A0B  A$lab4kfix$3377                    lab4kfix
C:   00000A0D  A$lab4kfix$3378                    lab4kfix
C:   00000A0E  A$lab4kfix$3379                    lab4kfix
C:   00000A10  A$lab4kfix$3380                    lab4kfix
C:   00000A12  A$lab4kfix$3383                    lab4kfix
C:   00000A12  C$lab4kfix.c$354$2$164             lab4kfix
C:   00000A15  A$lab4kfix$3384                    lab4kfix
C:   00000A16  A$lab4kfix$3385                    lab4kfix
C:   00000A17  A$lab4kfix$3386                    lab4kfix
C:   00000A18  A$lab4kfix$3387                    lab4kfix
C:   00000A19  A$lab4kfix$3388                    lab4kfix
C:   00000A1A  A$lab4kfix$3389                    lab4kfix
C:   00000A1B  A$lab4kfix$3390                    lab4kfix
C:   00000A1C  A$lab4kfix$3391                    lab4kfix
C:   00000A1E  A$lab4kfix$3392                    lab4kfix
C:   00000A1F  A$lab4kfix$3393                    lab4kfix
C:   00000A21  A$lab4kfix$3394                    lab4kfix
C:   00000A23  A$lab4kfix$3397                    lab4kfix
C:   00000A23  C$lab4kfix.c$355$2$164             lab4kfix
C:   00000A26  A$lab4kfix$3398                    lab4kfix
C:   00000A27  A$lab4kfix$3399                    lab4kfix
C:   00000A29  A$lab4kfix$3400                    lab4kfix
C:   00000A2A  A$lab4kfix$3401                    lab4kfix
C:   00000A2B  A$lab4kfix$3402                    lab4kfix
C:   00000A2D  A$lab4kfix$3403                    lab4kfix
C:   00000A2F  A$lab4kfix$3407                    lab4kfix
C:   00000A2F  C$lab4kfix.c$357$1$161             lab4kfix
C:   00000A32  A$lab4kfix$3410                    lab4kfix
C:   00000A32  C$lab4kfix.c$359$2$165             lab4kfix
C:   00000A34  A$lab4kfix$3411                    lab4kfix
C:   00000A36  A$lab4kfix$3412                    lab4kfix
C:   00000A38  A$lab4kfix$3413                    lab4kfix
C:   00000A3A  A$lab4kfix$3414                    lab4kfix
C:   00000A3C  A$lab4kfix$3415                    lab4kfix
C:   00000A3E  A$lab4kfix$3418                    lab4kfix
C:   00000A3E  C$lab4kfix.c$360$2$165             lab4kfix
C:   00000A41  A$lab4kfix$3419                    lab4kfix
C:   00000A42  A$lab4kfix$3420                    lab4kfix
C:   00000A43  A$lab4kfix$3421                    lab4kfix
C:   00000A44  A$lab4kfix$3422                    lab4kfix
C:   00000A45  A$lab4kfix$3423                    lab4kfix
C:   00000A46  A$lab4kfix$3424                    lab4kfix
C:   00000A47  A$lab4kfix$3425                    lab4kfix
C:   00000A49  A$lab4kfix$3426                    lab4kfix
ASxxxx Linker V03.00 + NoICE + sdld,  page 62.
Hexadecimal  [32-Bits]

Area                                    Addr        Size        Decimal Bytes (Attributes)
--------------------------------        ----        ----        ------- ----- ------------
CSEG                                000000D4    00001ADD =        6877. bytes (REL,CON,CODE)

      Value  Global                              Global Defined In Module
      -----  --------------------------------   ------------------------
C:   00000A4A  A$lab4kfix$3427                    lab4kfix
C:   00000A4C  A$lab4kfix$3428                    lab4kfix
C:   00000A4D  A$lab4kfix$3429                    lab4kfix
C:   00000A4F  A$lab4kfix$3432                    lab4kfix
C:   00000A4F  C$lab4kfix.c$361$2$165             lab4kfix
C:   00000A52  A$lab4kfix$3433                    lab4kfix
C:   00000A53  A$lab4kfix$3434                    lab4kfix
C:   00000A55  A$lab4kfix$3435                    lab4kfix
C:   00000A56  A$lab4kfix$3436                    lab4kfix
C:   00000A57  A$lab4kfix$3437                    lab4kfix
C:   00000A59  A$lab4kfix$3441                    lab4kfix
C:   00000A59  C$lab4kfix.c$363$1$161             lab4kfix
C:   00000A5B  A$lab4kfix$3442                    lab4kfix
C:   00000A5D  A$lab4kfix$3443                    lab4kfix
C:   00000A5F  A$lab4kfix$3444                    lab4kfix
C:   00000A61  A$lab4kfix$3445                    lab4kfix
C:   00000A63  A$lab4kfix$3446                    lab4kfix
C:   00000A65  A$lab4kfix$3447                    lab4kfix
C:   00000A67  A$lab4kfix$3448                    lab4kfix
C:   00000A69  A$lab4kfix$3449                    lab4kfix
C:   00000A6C  A$lab4kfix$3450                    lab4kfix
C:   00000A6E  A$lab4kfix$3451                    lab4kfix
C:   00000A70  A$lab4kfix$3452                    lab4kfix
C:   00000A72  A$lab4kfix$3455                    lab4kfix
C:   00000A72  C$lab4kfix.c$364$1$161             lab4kfix
C:   00000A74  A$lab4kfix$3456                    lab4kfix
C:   00000A75  A$lab4kfix$3457                    lab4kfix
C:   00000A77  A$lab4kfix$3458                    lab4kfix
C:   00000A79  A$lab4kfix$3459                    lab4kfix
C:   00000A7B  A$lab4kfix$3460                    lab4kfix
C:   00000A7D  A$lab4kfix$3461                    lab4kfix
C:   00000A7F  A$lab4kfix$3464                    lab4kfix
C:   00000A7F  C$lab4kfix.c$365$1$161             lab4kfix
C:   00000A81  A$lab4kfix$3465                    lab4kfix
C:   00000A83  A$lab4kfix$3466                    lab4kfix
C:   00000A85  A$lab4kfix$3467                    lab4kfix
C:   00000A87  A$lab4kfix$3468                    lab4kfix
C:   00000A89  A$lab4kfix$3469                    lab4kfix
C:   00000A8B  A$lab4kfix$3470                    lab4kfix
C:   00000A8D  A$lab4kfix$3471                    lab4kfix
C:   00000A8F  A$lab4kfix$3472                    lab4kfix
C:   00000A92  A$lab4kfix$3473                    lab4kfix
C:   00000A94  A$lab4kfix$3474                    lab4kfix
C:   00000A96  A$lab4kfix$3475                    lab4kfix
C:   00000A98  A$lab4kfix$3478                    lab4kfix
C:   00000A98  C$lab4kfix.c$366$1$161             lab4kfix
C:   00000A9A  A$lab4kfix$3479                    lab4kfix
C:   00000A9B  A$lab4kfix$3480                    lab4kfix
C:   00000A9D  A$lab4kfix$3481                    lab4kfix
C:   00000A9F  A$lab4kfix$3482                    lab4kfix
C:   00000AA1  A$lab4kfix$3483                    lab4kfix
ASxxxx Linker V03.00 + NoICE + sdld,  page 63.
Hexadecimal  [32-Bits]

Area                                    Addr        Size        Decimal Bytes (Attributes)
--------------------------------        ----        ----        ------- ----- ------------
CSEG                                000000D4    00001ADD =        6877. bytes (REL,CON,CODE)

      Value  Global                              Global Defined In Module
      -----  --------------------------------   ------------------------
C:   00000AA3  A$lab4kfix$3484                    lab4kfix
C:   00000AA5  A$lab4kfix$3487                    lab4kfix
C:   00000AA5  C$lab4kfix.c$368$1$161             lab4kfix
C:   00000AA5  XG$Set_Pulsewidth$0$0              lab4kfix
C:   00000AA6  A$lab4kfix$3500                    lab4kfix
C:   00000AA6  C$lab4kfix.c$370$1$161             lab4kfix
C:   00000AA6  C$lab4kfix.c$372$1$166             lab4kfix
C:   00000AA6  G$Set_Overide$0$0                  lab4kfix
C:   00000AA6  _Set_Overide                       lab4kfix
C:   00000AA8  A$lab4kfix$3501                    lab4kfix
C:   00000AAA  A$lab4kfix$3502                    lab4kfix
C:   00000AAC  A$lab4kfix$3505                    lab4kfix
C:   00000AAC  C$lab4kfix.c$373$1$166             lab4kfix
C:   00000AAF  A$lab4kfix$3506                    lab4kfix
C:   00000AB0  A$lab4kfix$3507                    lab4kfix
C:   00000AB2  A$lab4kfix$3508                    lab4kfix
C:   00000AB3  A$lab4kfix$3509                    lab4kfix
C:   00000AB4  A$lab4kfix$3510                    lab4kfix
C:   00000AB6  A$lab4kfix$3511                    lab4kfix
C:   00000AB9  A$lab4kfix$3515                    lab4kfix
C:   00000AB9  C$lab4kfix.c$374$1$166             lab4kfix
C:   00000ABB  A$lab4kfix$3516                    lab4kfix
C:   00000ABD  A$lab4kfix$3517                    lab4kfix
C:   00000ABF  A$lab4kfix$3520                    lab4kfix
C:   00000ABF  C$lab4kfix.c$375$1$166             lab4kfix
C:   00000AC2  A$lab4kfix$3521                    lab4kfix
C:   00000AC3  A$lab4kfix$3522                    lab4kfix
C:   00000AC5  A$lab4kfix$3523                    lab4kfix
C:   00000AC6  A$lab4kfix$3524                    lab4kfix
C:   00000AC7  A$lab4kfix$3525                    lab4kfix
C:   00000AC9  A$lab4kfix$3526                    lab4kfix
C:   00000ACC  A$lab4kfix$3530                    lab4kfix
C:   00000ACC  C$lab4kfix.c$378$2$167             lab4kfix
C:   00000ACE  A$lab4kfix$3531                    lab4kfix
C:   00000AD0  A$lab4kfix$3532                    lab4kfix
C:   00000AD2  A$lab4kfix$3533                    lab4kfix
C:   00000AD5  A$lab4kfix$3537                    lab4kfix
C:   00000AD5  C$lab4kfix.c$379$2$167             lab4kfix
C:   00000AD7  A$lab4kfix$3538                    lab4kfix
C:   00000AD9  A$lab4kfix$3539                    lab4kfix
C:   00000ADB  A$lab4kfix$3540                    lab4kfix
C:   00000ADC  A$lab4kfix$3541                    lab4kfix
C:   00000ADD  A$lab4kfix$3542                    lab4kfix
C:   00000ADF  A$lab4kfix$3543                    lab4kfix
C:   00000AE0  A$lab4kfix$3544                    lab4kfix
C:   00000AE1  A$lab4kfix$3545                    lab4kfix
C:   00000AE3  A$lab4kfix$3546                    lab4kfix
C:   00000AE6  A$lab4kfix$3547                    lab4kfix
C:   00000AE8  A$lab4kfix$3548                    lab4kfix
C:   00000AEA  A$lab4kfix$3549                    lab4kfix
C:   00000AEC  A$lab4kfix$3550                    lab4kfix
ASxxxx Linker V03.00 + NoICE + sdld,  page 64.
Hexadecimal  [32-Bits]

Area                                    Addr        Size        Decimal Bytes (Attributes)
--------------------------------        ----        ----        ------- ----- ------------
CSEG                                000000D4    00001ADD =        6877. bytes (REL,CON,CODE)

      Value  Global                              Global Defined In Module
      -----  --------------------------------   ------------------------
C:   00000AED  A$lab4kfix$3551                    lab4kfix
C:   00000AEF  A$lab4kfix$3552                    lab4kfix
C:   00000AF1  A$lab4kfix$3553                    lab4kfix
C:   00000AF3  A$lab4kfix$3554                    lab4kfix
C:   00000AF5  A$lab4kfix$3555                    lab4kfix
C:   00000AF8  A$lab4kfix$3556                    lab4kfix
C:   00000AFB  A$lab4kfix$3557                    lab4kfix
C:   00000AFD  A$lab4kfix$3558                    lab4kfix
C:   00000B00  A$lab4kfix$3559                    lab4kfix
C:   00000B02  A$lab4kfix$3560                    lab4kfix
C:   00000B04  A$lab4kfix$3561                    lab4kfix
C:   00000B06  A$lab4kfix$3562                    lab4kfix
C:   00000B07  A$lab4kfix$3563                    lab4kfix
C:   00000B09  A$lab4kfix$3564                    lab4kfix
C:   00000B0B  A$lab4kfix$3565                    lab4kfix
C:   00000B0D  A$lab4kfix$3566                    lab4kfix
C:   00000B10  A$lab4kfix$3567                    lab4kfix
C:   00000B11  A$lab4kfix$3568                    lab4kfix
C:   00000B12  A$lab4kfix$3569                    lab4kfix
C:   00000B13  A$lab4kfix$3570                    lab4kfix
C:   00000B14  A$lab4kfix$3571                    lab4kfix
C:   00000B15  A$lab4kfix$3572                    lab4kfix
C:   00000B17  A$lab4kfix$3573                    lab4kfix
C:   00000B19  A$lab4kfix$3574                    lab4kfix
C:   00000B1B  A$lab4kfix$3575                    lab4kfix
C:   00000B1D  A$lab4kfix$3576                    lab4kfix
C:   00000B1F  A$lab4kfix$3577                    lab4kfix
C:   00000B21  A$lab4kfix$3578                    lab4kfix
C:   00000B24  A$lab4kfix$3579                    lab4kfix
C:   00000B26  A$lab4kfix$3580                    lab4kfix
C:   00000B28  A$lab4kfix$3581                    lab4kfix
C:   00000B2A  A$lab4kfix$3582                    lab4kfix
C:   00000B2B  A$lab4kfix$3583                    lab4kfix
C:   00000B2D  A$lab4kfix$3584                    lab4kfix
C:   00000B2F  A$lab4kfix$3585                    lab4kfix
C:   00000B31  A$lab4kfix$3586                    lab4kfix
C:   00000B33  A$lab4kfix$3587                    lab4kfix
C:   00000B35  A$lab4kfix$3588                    lab4kfix
C:   00000B37  A$lab4kfix$3589                    lab4kfix
C:   00000B39  A$lab4kfix$3590                    lab4kfix
C:   00000B3B  A$lab4kfix$3591                    lab4kfix
C:   00000B3D  A$lab4kfix$3592                    lab4kfix
C:   00000B3F  A$lab4kfix$3593                    lab4kfix
C:   00000B41  A$lab4kfix$3594                    lab4kfix
C:   00000B42  A$lab4kfix$3595                    lab4kfix
C:   00000B45  A$lab4kfix$3596                    lab4kfix
C:   00000B47  A$lab4kfix$3597                    lab4kfix
C:   00000B49  A$lab4kfix$3598                    lab4kfix
C:   00000B4B  A$lab4kfix$3599                    lab4kfix
C:   00000B4C  A$lab4kfix$3600                    lab4kfix
C:   00000B4E  A$lab4kfix$3601                    lab4kfix
ASxxxx Linker V03.00 + NoICE + sdld,  page 65.
Hexadecimal  [32-Bits]

Area                                    Addr        Size        Decimal Bytes (Attributes)
--------------------------------        ----        ----        ------- ----- ------------
CSEG                                000000D4    00001ADD =        6877. bytes (REL,CON,CODE)

      Value  Global                              Global Defined In Module
      -----  --------------------------------   ------------------------
C:   00000B50  A$lab4kfix$3602                    lab4kfix
C:   00000B52  A$lab4kfix$3603                    lab4kfix
C:   00000B54  A$lab4kfix$3604                    lab4kfix
C:   00000B56  A$lab4kfix$3605                    lab4kfix
C:   00000B58  A$lab4kfix$3606                    lab4kfix
C:   00000B59  A$lab4kfix$3607                    lab4kfix
C:   00000B5C  A$lab4kfix$3608                    lab4kfix
C:   00000B5F  A$lab4kfix$3609                    lab4kfix
C:   00000B62  A$lab4kfix$3610                    lab4kfix
C:   00000B65  A$lab4kfix$3614                    lab4kfix
C:   00000B65  C$lab4kfix.c$380$2$167             lab4kfix
C:   00000B67  A$lab4kfix$3615                    lab4kfix
C:   00000B69  A$lab4kfix$3616                    lab4kfix
C:   00000B6B  A$lab4kfix$3617                    lab4kfix
C:   00000B6E  A$lab4kfix$3621                    lab4kfix
C:   00000B6E  C$lab4kfix.c$381$2$167             lab4kfix
C:   00000B70  A$lab4kfix$3622                    lab4kfix
C:   00000B72  A$lab4kfix$3623                    lab4kfix
C:   00000B73  A$lab4kfix$3624                    lab4kfix
C:   00000B75  A$lab4kfix$3625                    lab4kfix
C:   00000B77  A$lab4kfix$3626                    lab4kfix
C:   00000B78  A$lab4kfix$3627                    lab4kfix
C:   00000B7A  A$lab4kfix$3628                    lab4kfix
C:   00000B7C  A$lab4kfix$3629                    lab4kfix
C:   00000B7F  A$lab4kfix$3630                    lab4kfix
C:   00000B81  A$lab4kfix$3631                    lab4kfix
C:   00000B83  A$lab4kfix$3632                    lab4kfix
C:   00000B85  A$lab4kfix$3633                    lab4kfix
C:   00000B86  A$lab4kfix$3634                    lab4kfix
C:   00000B88  A$lab4kfix$3635                    lab4kfix
C:   00000B8A  A$lab4kfix$3636                    lab4kfix
C:   00000B8C  A$lab4kfix$3637                    lab4kfix
C:   00000B8E  A$lab4kfix$3638                    lab4kfix
C:   00000B91  A$lab4kfix$3639                    lab4kfix
C:   00000B94  A$lab4kfix$3640                    lab4kfix
C:   00000B96  A$lab4kfix$3641                    lab4kfix
C:   00000B99  A$lab4kfix$3642                    lab4kfix
C:   00000B9B  A$lab4kfix$3643                    lab4kfix
C:   00000B9D  A$lab4kfix$3644                    lab4kfix
C:   00000B9F  A$lab4kfix$3645                    lab4kfix
C:   00000BA0  A$lab4kfix$3646                    lab4kfix
C:   00000BA2  A$lab4kfix$3647                    lab4kfix
C:   00000BA4  A$lab4kfix$3648                    lab4kfix
C:   00000BA6  A$lab4kfix$3649                    lab4kfix
C:   00000BA9  A$lab4kfix$3650                    lab4kfix
C:   00000BAA  A$lab4kfix$3651                    lab4kfix
C:   00000BAB  A$lab4kfix$3652                    lab4kfix
C:   00000BAC  A$lab4kfix$3653                    lab4kfix
C:   00000BAD  A$lab4kfix$3654                    lab4kfix
C:   00000BAE  A$lab4kfix$3655                    lab4kfix
C:   00000BB0  A$lab4kfix$3656                    lab4kfix
ASxxxx Linker V03.00 + NoICE + sdld,  page 66.
Hexadecimal  [32-Bits]

Area                                    Addr        Size        Decimal Bytes (Attributes)
--------------------------------        ----        ----        ------- ----- ------------
CSEG                                000000D4    00001ADD =        6877. bytes (REL,CON,CODE)

      Value  Global                              Global Defined In Module
      -----  --------------------------------   ------------------------
C:   00000BB2  A$lab4kfix$3657                    lab4kfix
C:   00000BB4  A$lab4kfix$3658                    lab4kfix
C:   00000BB6  A$lab4kfix$3659                    lab4kfix
C:   00000BB8  A$lab4kfix$3660                    lab4kfix
C:   00000BBA  A$lab4kfix$3661                    lab4kfix
C:   00000BBD  A$lab4kfix$3662                    lab4kfix
C:   00000BBF  A$lab4kfix$3663                    lab4kfix
C:   00000BC1  A$lab4kfix$3664                    lab4kfix
C:   00000BC3  A$lab4kfix$3665                    lab4kfix
C:   00000BC4  A$lab4kfix$3666                    lab4kfix
C:   00000BC6  A$lab4kfix$3667                    lab4kfix
C:   00000BC8  A$lab4kfix$3668                    lab4kfix
C:   00000BCA  A$lab4kfix$3669                    lab4kfix
C:   00000BCC  A$lab4kfix$3670                    lab4kfix
C:   00000BCE  A$lab4kfix$3671                    lab4kfix
C:   00000BD0  A$lab4kfix$3672                    lab4kfix
C:   00000BD2  A$lab4kfix$3673                    lab4kfix
C:   00000BD4  A$lab4kfix$3674                    lab4kfix
C:   00000BD6  A$lab4kfix$3675                    lab4kfix
C:   00000BD8  A$lab4kfix$3676                    lab4kfix
C:   00000BDA  A$lab4kfix$3677                    lab4kfix
C:   00000BDB  A$lab4kfix$3678                    lab4kfix
C:   00000BDE  A$lab4kfix$3679                    lab4kfix
C:   00000BE0  A$lab4kfix$3680                    lab4kfix
C:   00000BE2  A$lab4kfix$3681                    lab4kfix
C:   00000BE4  A$lab4kfix$3682                    lab4kfix
C:   00000BE5  A$lab4kfix$3683                    lab4kfix
C:   00000BE7  A$lab4kfix$3684                    lab4kfix
C:   00000BE9  A$lab4kfix$3685                    lab4kfix
C:   00000BEB  A$lab4kfix$3686                    lab4kfix
C:   00000BED  A$lab4kfix$3687                    lab4kfix
C:   00000BEF  A$lab4kfix$3688                    lab4kfix
C:   00000BF1  A$lab4kfix$3689                    lab4kfix
C:   00000BF2  A$lab4kfix$3690                    lab4kfix
C:   00000BF5  A$lab4kfix$3691                    lab4kfix
C:   00000BF8  A$lab4kfix$3692                    lab4kfix
C:   00000BFB  A$lab4kfix$3693                    lab4kfix
C:   00000BFD  A$lab4kfix$3697                    lab4kfix
C:   00000BFD  C$lab4kfix.c$383$2$167             lab4kfix
C:   00000C00  A$lab4kfix$3698                    lab4kfix
C:   00000C01  A$lab4kfix$3699                    lab4kfix
C:   00000C02  A$lab4kfix$3700                    lab4kfix
C:   00000C03  A$lab4kfix$3701                    lab4kfix
C:   00000C04  A$lab4kfix$3702                    lab4kfix
C:   00000C05  A$lab4kfix$3703                    lab4kfix
C:   00000C06  A$lab4kfix$3704                    lab4kfix
C:   00000C07  A$lab4kfix$3705                    lab4kfix
C:   00000C09  A$lab4kfix$3706                    lab4kfix
C:   00000C0A  A$lab4kfix$3707                    lab4kfix
C:   00000C0C  A$lab4kfix$3708                    lab4kfix
C:   00000C0E  A$lab4kfix$3711                    lab4kfix
ASxxxx Linker V03.00 + NoICE + sdld,  page 67.
Hexadecimal  [32-Bits]

Area                                    Addr        Size        Decimal Bytes (Attributes)
--------------------------------        ----        ----        ------- ----- ------------
CSEG                                000000D4    00001ADD =        6877. bytes (REL,CON,CODE)

      Value  Global                              Global Defined In Module
      -----  --------------------------------   ------------------------
C:   00000C0E  C$lab4kfix.c$384$2$167             lab4kfix
C:   00000C11  A$lab4kfix$3712                    lab4kfix
C:   00000C12  A$lab4kfix$3713                    lab4kfix
C:   00000C14  A$lab4kfix$3714                    lab4kfix
C:   00000C15  A$lab4kfix$3715                    lab4kfix
C:   00000C16  A$lab4kfix$3716                    lab4kfix
C:   00000C18  A$lab4kfix$3717                    lab4kfix
C:   00000C1A  A$lab4kfix$3721                    lab4kfix
C:   00000C1A  C$lab4kfix.c$385$2$167             lab4kfix
C:   00000C1D  A$lab4kfix$3722                    lab4kfix
C:   00000C1E  A$lab4kfix$3723                    lab4kfix
C:   00000C1F  A$lab4kfix$3724                    lab4kfix
C:   00000C20  A$lab4kfix$3725                    lab4kfix
C:   00000C21  A$lab4kfix$3726                    lab4kfix
C:   00000C22  A$lab4kfix$3727                    lab4kfix
C:   00000C23  A$lab4kfix$3728                    lab4kfix
C:   00000C25  A$lab4kfix$3729                    lab4kfix
C:   00000C26  A$lab4kfix$3730                    lab4kfix
C:   00000C28  A$lab4kfix$3731                    lab4kfix
C:   00000C29  A$lab4kfix$3732                    lab4kfix
C:   00000C2B  A$lab4kfix$3735                    lab4kfix
C:   00000C2B  C$lab4kfix.c$386$2$167             lab4kfix
C:   00000C2E  A$lab4kfix$3736                    lab4kfix
C:   00000C2F  A$lab4kfix$3737                    lab4kfix
C:   00000C31  A$lab4kfix$3738                    lab4kfix
C:   00000C32  A$lab4kfix$3739                    lab4kfix
C:   00000C33  A$lab4kfix$3740                    lab4kfix
C:   00000C35  A$lab4kfix$3744                    lab4kfix
C:   00000C35  C$lab4kfix.c$388$1$166             lab4kfix
C:   00000C38  A$lab4kfix$3745                    lab4kfix
C:   00000C39  A$lab4kfix$3746                    lab4kfix
C:   00000C3A  A$lab4kfix$3747                    lab4kfix
C:   00000C3B  A$lab4kfix$3748                    lab4kfix
C:   00000C3C  A$lab4kfix$3749                    lab4kfix
C:   00000C3D  A$lab4kfix$3750                    lab4kfix
C:   00000C3F  A$lab4kfix$3751                    lab4kfix
C:   00000C40  A$lab4kfix$3752                    lab4kfix
C:   00000C41  A$lab4kfix$3753                    lab4kfix
C:   00000C42  A$lab4kfix$3754                    lab4kfix
C:   00000C44  A$lab4kfix$3755                    lab4kfix
C:   00000C45  A$lab4kfix$3756                    lab4kfix
C:   00000C46  A$lab4kfix$3757                    lab4kfix
C:   00000C48  A$lab4kfix$3758                    lab4kfix
C:   00000C4A  A$lab4kfix$3759                    lab4kfix
C:   00000C4C  A$lab4kfix$3760                    lab4kfix
C:   00000C4E  A$lab4kfix$3761                    lab4kfix
C:   00000C50  A$lab4kfix$3762                    lab4kfix
C:   00000C52  A$lab4kfix$3763                    lab4kfix
C:   00000C54  A$lab4kfix$3764                    lab4kfix
C:   00000C56  A$lab4kfix$3765                    lab4kfix
C:   00000C59  A$lab4kfix$3766                    lab4kfix
ASxxxx Linker V03.00 + NoICE + sdld,  page 68.
Hexadecimal  [32-Bits]

Area                                    Addr        Size        Decimal Bytes (Attributes)
--------------------------------        ----        ----        ------- ----- ------------
CSEG                                000000D4    00001ADD =        6877. bytes (REL,CON,CODE)

      Value  Global                              Global Defined In Module
      -----  --------------------------------   ------------------------
C:   00000C5B  A$lab4kfix$3767                    lab4kfix
C:   00000C5D  A$lab4kfix$3768                    lab4kfix
C:   00000C5F  A$lab4kfix$3771                    lab4kfix
C:   00000C5F  C$lab4kfix.c$389$1$166             lab4kfix
C:   00000C61  A$lab4kfix$3772                    lab4kfix
C:   00000C62  A$lab4kfix$3773                    lab4kfix
C:   00000C64  A$lab4kfix$3774                    lab4kfix
C:   00000C66  A$lab4kfix$3775                    lab4kfix
C:   00000C68  A$lab4kfix$3776                    lab4kfix
C:   00000C6A  A$lab4kfix$3777                    lab4kfix
C:   00000C6C  A$lab4kfix$3780                    lab4kfix
C:   00000C6C  C$lab4kfix.c$390$1$166             lab4kfix
C:   00000C6C  XG$Set_Overide$0$0                 lab4kfix
C:   00000C6D  A$lab4kfix$3795                    lab4kfix
C:   00000C6D  C$lab4kfix.c$391$1$166             lab4kfix
C:   00000C6D  C$lab4kfix.c$395$1$168             lab4kfix
C:   00000C6D  G$Set_Speed$0$0                    lab4kfix
C:   00000C6D  _Set_Speed                         lab4kfix
C:   00000C70  A$lab4kfix$3796                    lab4kfix
C:   00000C72  A$lab4kfix$3799                    lab4kfix
C:   00000C72  C$lab4kfix.c$396$1$168             lab4kfix
C:   00000C75  A$lab4kfix$3802                    lab4kfix
C:   00000C75  C$lab4kfix.c$398$2$169             lab4kfix
C:   00000C77  A$lab4kfix$3803                    lab4kfix
C:   00000C79  A$lab4kfix$3804                    lab4kfix
C:   00000C7B  A$lab4kfix$3805                    lab4kfix
C:   00000C7C  A$lab4kfix$3806                    lab4kfix
C:   00000C7E  A$lab4kfix$3807                    lab4kfix
C:   00000C80  A$lab4kfix$3810                    lab4kfix
C:   00000C80  C$lab4kfix.c$399$2$169             lab4kfix
C:   00000C83  A$lab4kfix$3811                    lab4kfix
C:   00000C84  A$lab4kfix$3812                    lab4kfix
C:   00000C85  A$lab4kfix$3813                    lab4kfix
C:   00000C86  A$lab4kfix$3814                    lab4kfix
C:   00000C87  A$lab4kfix$3815                    lab4kfix
C:   00000C88  A$lab4kfix$3816                    lab4kfix
C:   00000C89  A$lab4kfix$3817                    lab4kfix
C:   00000C8A  A$lab4kfix$3818                    lab4kfix
C:   00000C8C  A$lab4kfix$3819                    lab4kfix
C:   00000C8D  A$lab4kfix$3820                    lab4kfix
C:   00000C8F  A$lab4kfix$3821                    lab4kfix
C:   00000C91  A$lab4kfix$3824                    lab4kfix
C:   00000C91  C$lab4kfix.c$400$2$169             lab4kfix
C:   00000C94  A$lab4kfix$3825                    lab4kfix
C:   00000C95  A$lab4kfix$3826                    lab4kfix
C:   00000C97  A$lab4kfix$3827                    lab4kfix
C:   00000C98  A$lab4kfix$3828                    lab4kfix
C:   00000C99  A$lab4kfix$3829                    lab4kfix
C:   00000C9B  A$lab4kfix$3830                    lab4kfix
C:   00000C9D  A$lab4kfix$3834                    lab4kfix
C:   00000C9D  C$lab4kfix.c$402$1$168             lab4kfix
ASxxxx Linker V03.00 + NoICE + sdld,  page 69.
Hexadecimal  [32-Bits]

Area                                    Addr        Size        Decimal Bytes (Attributes)
--------------------------------        ----        ----        ------- ----- ------------
CSEG                                000000D4    00001ADD =        6877. bytes (REL,CON,CODE)

      Value  Global                              Global Defined In Module
      -----  --------------------------------   ------------------------
C:   00000CA0  A$lab4kfix$3837                    lab4kfix
C:   00000CA0  C$lab4kfix.c$404$2$170             lab4kfix
C:   00000CA2  A$lab4kfix$3838                    lab4kfix
C:   00000CA4  A$lab4kfix$3839                    lab4kfix
C:   00000CA6  A$lab4kfix$3840                    lab4kfix
C:   00000CA8  A$lab4kfix$3841                    lab4kfix
C:   00000CAA  A$lab4kfix$3842                    lab4kfix
C:   00000CAC  A$lab4kfix$3845                    lab4kfix
C:   00000CAC  C$lab4kfix.c$405$2$170             lab4kfix
C:   00000CAF  A$lab4kfix$3846                    lab4kfix
C:   00000CB0  A$lab4kfix$3847                    lab4kfix
C:   00000CB1  A$lab4kfix$3848                    lab4kfix
C:   00000CB2  A$lab4kfix$3849                    lab4kfix
C:   00000CB3  A$lab4kfix$3850                    lab4kfix
C:   00000CB4  A$lab4kfix$3851                    lab4kfix
C:   00000CB5  A$lab4kfix$3852                    lab4kfix
C:   00000CB7  A$lab4kfix$3853                    lab4kfix
C:   00000CB8  A$lab4kfix$3854                    lab4kfix
C:   00000CBA  A$lab4kfix$3855                    lab4kfix
C:   00000CBB  A$lab4kfix$3856                    lab4kfix
C:   00000CBD  A$lab4kfix$3859                    lab4kfix
C:   00000CBD  C$lab4kfix.c$406$2$170             lab4kfix
C:   00000CC0  A$lab4kfix$3860                    lab4kfix
C:   00000CC1  A$lab4kfix$3861                    lab4kfix
C:   00000CC3  A$lab4kfix$3862                    lab4kfix
C:   00000CC4  A$lab4kfix$3863                    lab4kfix
C:   00000CC5  A$lab4kfix$3864                    lab4kfix
C:   00000CC7  A$lab4kfix$3865                    lab4kfix
C:   00000CC9  A$lab4kfix$3869                    lab4kfix
C:   00000CC9  C$lab4kfix.c$408$1$168             lab4kfix
C:   00000CCC  A$lab4kfix$3872                    lab4kfix
C:   00000CCC  C$lab4kfix.c$410$2$171             lab4kfix
C:   00000CCF  A$lab4kfix$3873                    lab4kfix
C:   00000CD0  A$lab4kfix$3874                    lab4kfix
C:   00000CD2  A$lab4kfix$3875                    lab4kfix
C:   00000CD3  A$lab4kfix$3876                    lab4kfix
C:   00000CD4  A$lab4kfix$3877                    lab4kfix
C:   00000CD6  A$lab4kfix$3881                    lab4kfix
C:   00000CD6  C$lab4kfix.c$412$1$168             lab4kfix
C:   00000CD8  A$lab4kfix$3882                    lab4kfix
C:   00000CDA  A$lab4kfix$3883                    lab4kfix
C:   00000CDC  A$lab4kfix$3884                    lab4kfix
C:   00000CDE  A$lab4kfix$3885                    lab4kfix
C:   00000CE0  A$lab4kfix$3886                    lab4kfix
C:   00000CE2  A$lab4kfix$3887                    lab4kfix
C:   00000CE4  A$lab4kfix$3888                    lab4kfix
C:   00000CE6  A$lab4kfix$3889                    lab4kfix
C:   00000CE9  A$lab4kfix$3890                    lab4kfix
C:   00000CEB  A$lab4kfix$3891                    lab4kfix
C:   00000CED  A$lab4kfix$3892                    lab4kfix
C:   00000CEF  A$lab4kfix$3895                    lab4kfix
ASxxxx Linker V03.00 + NoICE + sdld,  page 70.
Hexadecimal  [32-Bits]

Area                                    Addr        Size        Decimal Bytes (Attributes)
--------------------------------        ----        ----        ------- ----- ------------
CSEG                                000000D4    00001ADD =        6877. bytes (REL,CON,CODE)

      Value  Global                              Global Defined In Module
      -----  --------------------------------   ------------------------
C:   00000CEF  C$lab4kfix.c$413$1$168             lab4kfix
C:   00000CF1  A$lab4kfix$3896                    lab4kfix
C:   00000CF2  A$lab4kfix$3897                    lab4kfix
C:   00000CF4  A$lab4kfix$3898                    lab4kfix
C:   00000CF6  A$lab4kfix$3899                    lab4kfix
C:   00000CF8  A$lab4kfix$3900                    lab4kfix
C:   00000CFA  A$lab4kfix$3901                    lab4kfix
C:   00000CFC  A$lab4kfix$3904                    lab4kfix
C:   00000CFC  C$lab4kfix.c$414$1$168             lab4kfix
C:   00000CFC  XG$Set_Speed$0$0                   lab4kfix
C:   00000CFD  A$lab4kfix$3917                    lab4kfix
C:   00000CFD  C$lab4kfix.c$416$1$168             lab4kfix
C:   00000CFD  C$lab4kfix.c$418$1$172             lab4kfix
C:   00000CFD  G$Set_Heading$0$0                  lab4kfix
C:   00000CFD  _Set_Heading                       lab4kfix
C:   00000CFF  A$lab4kfix$3918                    lab4kfix
C:   00000D00  A$lab4kfix$3919                    lab4kfix
C:   00000D02  A$lab4kfix$3920                    lab4kfix
C:   00000D04  A$lab4kfix$3921                    lab4kfix
C:   00000D06  A$lab4kfix$3922                    lab4kfix
C:   00000D08  A$lab4kfix$3923                    lab4kfix
C:   00000D0A  A$lab4kfix$3926                    lab4kfix
C:   00000D0A  C$lab4kfix.c$419$1$172             lab4kfix
C:   00000D0B  A$lab4kfix$3927                    lab4kfix
C:   00000D0D  A$lab4kfix$3928                    lab4kfix
C:   00000D0F  A$lab4kfix$3929                    lab4kfix
C:   00000D11  A$lab4kfix$3930                    lab4kfix
C:   00000D13  A$lab4kfix$3931                    lab4kfix
C:   00000D15  A$lab4kfix$3932                    lab4kfix
C:   00000D17  A$lab4kfix$3935                    lab4kfix
C:   00000D17  C$lab4kfix.c$420$1$172             lab4kfix
C:   00000D19  A$lab4kfix$3936                    lab4kfix
C:   00000D1B  A$lab4kfix$3937                    lab4kfix
C:   00000D1D  A$lab4kfix$3938                    lab4kfix
C:   00000D1F  A$lab4kfix$3939                    lab4kfix
C:   00000D21  A$lab4kfix$3940                    lab4kfix
C:   00000D23  A$lab4kfix$3941                    lab4kfix
C:   00000D26  A$lab4kfix$3945                    lab4kfix
C:   00000D26  C$lab4kfix.c$421$1$172             lab4kfix
C:   00000D27  A$lab4kfix$3946                    lab4kfix
C:   00000D29  A$lab4kfix$3947                    lab4kfix
C:   00000D2B  A$lab4kfix$3948                    lab4kfix
C:   00000D2D  A$lab4kfix$3949                    lab4kfix
C:   00000D30  A$lab4kfix$3950                    lab4kfix
C:   00000D33  A$lab4kfix$3951                    lab4kfix
C:   00000D35  A$lab4kfix$3952                    lab4kfix
C:   00000D37  A$lab4kfix$3955                    lab4kfix
C:   00000D37  C$lab4kfix.c$422$1$172             lab4kfix
C:   00000D39  A$lab4kfix$3956                    lab4kfix
C:   00000D3B  A$lab4kfix$3957                    lab4kfix
C:   00000D3D  A$lab4kfix$3958                    lab4kfix
ASxxxx Linker V03.00 + NoICE + sdld,  page 71.
Hexadecimal  [32-Bits]

Area                                    Addr        Size        Decimal Bytes (Attributes)
--------------------------------        ----        ----        ------- ----- ------------
CSEG                                000000D4    00001ADD =        6877. bytes (REL,CON,CODE)

      Value  Global                              Global Defined In Module
      -----  --------------------------------   ------------------------
C:   00000D3F  A$lab4kfix$3959                    lab4kfix
C:   00000D41  A$lab4kfix$3960                    lab4kfix
C:   00000D43  A$lab4kfix$3961                    lab4kfix
C:   00000D45  A$lab4kfix$3965                    lab4kfix
C:   00000D45  C$lab4kfix.c$423$1$172             lab4kfix
C:   00000D46  A$lab4kfix$3966                    lab4kfix
C:   00000D48  A$lab4kfix$3967                    lab4kfix
C:   00000D4A  A$lab4kfix$3968                    lab4kfix
C:   00000D4C  A$lab4kfix$3969                    lab4kfix
C:   00000D4F  A$lab4kfix$3970                    lab4kfix
C:   00000D52  A$lab4kfix$3971                    lab4kfix
C:   00000D54  A$lab4kfix$3972                    lab4kfix
C:   00000D56  A$lab4kfix$3973                    lab4kfix
C:   00000D58  A$lab4kfix$3974                    lab4kfix
C:   00000D5A  A$lab4kfix$3975                    lab4kfix
C:   00000D5C  A$lab4kfix$3976                    lab4kfix
C:   00000D5E  A$lab4kfix$3977                    lab4kfix
C:   00000D60  A$lab4kfix$3978                    lab4kfix
C:   00000D62  A$lab4kfix$3981                    lab4kfix
C:   00000D62  C$lab4kfix.c$424$1$172             lab4kfix
C:   00000D64  A$lab4kfix$3982                    lab4kfix
C:   00000D66  A$lab4kfix$3983                    lab4kfix
C:   00000D68  A$lab4kfix$3984                    lab4kfix
C:   00000D6A  A$lab4kfix$3985                    lab4kfix
C:   00000D6C  A$lab4kfix$3986                    lab4kfix
C:   00000D6E  A$lab4kfix$3987                    lab4kfix
C:   00000D71  A$lab4kfix$3988                    lab4kfix
C:   00000D73  A$lab4kfix$3989                    lab4kfix
C:   00000D75  A$lab4kfix$3990                    lab4kfix
C:   00000D77  A$lab4kfix$3991                    lab4kfix
C:   00000D79  A$lab4kfix$3995                    lab4kfix
C:   00000D79  C$lab4kfix.c$425$1$172             lab4kfix
C:   00000D7A  A$lab4kfix$3996                    lab4kfix
C:   00000D7C  A$lab4kfix$3997                    lab4kfix
C:   00000D7E  A$lab4kfix$3998                    lab4kfix
C:   00000D80  A$lab4kfix$3999                    lab4kfix
C:   00000D83  A$lab4kfix$4000                    lab4kfix
C:   00000D86  A$lab4kfix$4001                    lab4kfix
C:   00000D88  A$lab4kfix$4002                    lab4kfix
C:   00000D8A  A$lab4kfix$4003                    lab4kfix
C:   00000D8C  A$lab4kfix$4004                    lab4kfix
C:   00000D8E  A$lab4kfix$4005                    lab4kfix
C:   00000D90  A$lab4kfix$4006                    lab4kfix
C:   00000D92  A$lab4kfix$4007                    lab4kfix
C:   00000D94  A$lab4kfix$4008                    lab4kfix
C:   00000D96  A$lab4kfix$4011                    lab4kfix
C:   00000D96  C$lab4kfix.c$426$1$172             lab4kfix
C:   00000D98  A$lab4kfix$4012                    lab4kfix
C:   00000D9A  A$lab4kfix$4013                    lab4kfix
C:   00000D9C  A$lab4kfix$4014                    lab4kfix
C:   00000D9E  A$lab4kfix$4015                    lab4kfix
ASxxxx Linker V03.00 + NoICE + sdld,  page 72.
Hexadecimal  [32-Bits]

Area                                    Addr        Size        Decimal Bytes (Attributes)
--------------------------------        ----        ----        ------- ----- ------------
CSEG                                000000D4    00001ADD =        6877. bytes (REL,CON,CODE)

      Value  Global                              Global Defined In Module
      -----  --------------------------------   ------------------------
C:   00000DA0  A$lab4kfix$4016                    lab4kfix
C:   00000DA2  A$lab4kfix$4017                    lab4kfix
C:   00000DA5  A$lab4kfix$4018                    lab4kfix
C:   00000DA7  A$lab4kfix$4019                    lab4kfix
C:   00000DA9  A$lab4kfix$4020                    lab4kfix
C:   00000DAB  A$lab4kfix$4024                    lab4kfix
C:   00000DAB  C$lab4kfix.c$427$1$172             lab4kfix
C:   00000DAC  A$lab4kfix$4025                    lab4kfix
C:   00000DAE  A$lab4kfix$4026                    lab4kfix
C:   00000DB0  A$lab4kfix$4027                    lab4kfix
C:   00000DB2  A$lab4kfix$4028                    lab4kfix
C:   00000DB5  A$lab4kfix$4029                    lab4kfix
C:   00000DB8  A$lab4kfix$4030                    lab4kfix
C:   00000DBA  A$lab4kfix$4031                    lab4kfix
C:   00000DBC  A$lab4kfix$4032                    lab4kfix
C:   00000DBF  A$lab4kfix$4036                    lab4kfix
C:   00000DBF  C$lab4kfix.c$429$1$172             lab4kfix
C:   00000DC2  A$lab4kfix$4037                    lab4kfix
C:   00000DC5  A$lab4kfix$4038                    lab4kfix
C:   00000DC8  A$lab4kfix$4039                    lab4kfix
C:   00000DCA  A$lab4kfix$4040                    lab4kfix
C:   00000DCC  A$lab4kfix$4041                    lab4kfix
C:   00000DCE  A$lab4kfix$4042                    lab4kfix
C:   00000DCF  A$lab4kfix$4043                    lab4kfix
C:   00000DD1  A$lab4kfix$4044                    lab4kfix
C:   00000DD3  A$lab4kfix$4045                    lab4kfix
C:   00000DD5  A$lab4kfix$4046                    lab4kfix
C:   00000DD7  A$lab4kfix$4047                    lab4kfix
C:   00000DDA  A$lab4kfix$4048                    lab4kfix
C:   00000DDD  A$lab4kfix$4049                    lab4kfix
C:   00000DDF  A$lab4kfix$4050                    lab4kfix
C:   00000DE2  A$lab4kfix$4051                    lab4kfix
C:   00000DE4  A$lab4kfix$4052                    lab4kfix
C:   00000DE6  A$lab4kfix$4053                    lab4kfix
C:   00000DE8  A$lab4kfix$4054                    lab4kfix
C:   00000DE9  A$lab4kfix$4055                    lab4kfix
C:   00000DEB  A$lab4kfix$4056                    lab4kfix
C:   00000DED  A$lab4kfix$4057                    lab4kfix
C:   00000DEF  A$lab4kfix$4058                    lab4kfix
C:   00000DF2  A$lab4kfix$4059                    lab4kfix
C:   00000DF3  A$lab4kfix$4060                    lab4kfix
C:   00000DF4  A$lab4kfix$4061                    lab4kfix
C:   00000DF5  A$lab4kfix$4062                    lab4kfix
C:   00000DF6  A$lab4kfix$4063                    lab4kfix
C:   00000DF7  A$lab4kfix$4064                    lab4kfix
C:   00000DF9  A$lab4kfix$4065                    lab4kfix
C:   00000DFB  A$lab4kfix$4066                    lab4kfix
C:   00000DFD  A$lab4kfix$4067                    lab4kfix
C:   00000DFF  A$lab4kfix$4068                    lab4kfix
C:   00000E01  A$lab4kfix$4069                    lab4kfix
C:   00000E03  A$lab4kfix$4070                    lab4kfix
ASxxxx Linker V03.00 + NoICE + sdld,  page 73.
Hexadecimal  [32-Bits]

Area                                    Addr        Size        Decimal Bytes (Attributes)
--------------------------------        ----        ----        ------- ----- ------------
CSEG                                000000D4    00001ADD =        6877. bytes (REL,CON,CODE)

      Value  Global                              Global Defined In Module
      -----  --------------------------------   ------------------------
C:   00000E06  A$lab4kfix$4071                    lab4kfix
C:   00000E08  A$lab4kfix$4072                    lab4kfix
C:   00000E0A  A$lab4kfix$4073                    lab4kfix
C:   00000E0C  A$lab4kfix$4074                    lab4kfix
C:   00000E0D  A$lab4kfix$4075                    lab4kfix
C:   00000E0F  A$lab4kfix$4076                    lab4kfix
C:   00000E11  A$lab4kfix$4077                    lab4kfix
C:   00000E13  A$lab4kfix$4078                    lab4kfix
C:   00000E15  A$lab4kfix$4079                    lab4kfix
C:   00000E17  A$lab4kfix$4080                    lab4kfix
C:   00000E19  A$lab4kfix$4081                    lab4kfix
C:   00000E1B  A$lab4kfix$4082                    lab4kfix
C:   00000E1D  A$lab4kfix$4083                    lab4kfix
C:   00000E1F  A$lab4kfix$4084                    lab4kfix
C:   00000E21  A$lab4kfix$4085                    lab4kfix
C:   00000E23  A$lab4kfix$4086                    lab4kfix
C:   00000E24  A$lab4kfix$4087                    lab4kfix
C:   00000E27  A$lab4kfix$4088                    lab4kfix
C:   00000E29  A$lab4kfix$4089                    lab4kfix
C:   00000E2B  A$lab4kfix$4090                    lab4kfix
C:   00000E2D  A$lab4kfix$4091                    lab4kfix
C:   00000E2E  A$lab4kfix$4092                    lab4kfix
C:   00000E30  A$lab4kfix$4093                    lab4kfix
C:   00000E32  A$lab4kfix$4094                    lab4kfix
C:   00000E34  A$lab4kfix$4095                    lab4kfix
C:   00000E36  A$lab4kfix$4096                    lab4kfix
C:   00000E38  A$lab4kfix$4097                    lab4kfix
C:   00000E3A  A$lab4kfix$4098                    lab4kfix
C:   00000E3B  A$lab4kfix$4099                    lab4kfix
C:   00000E3E  A$lab4kfix$4100                    lab4kfix
C:   00000E41  A$lab4kfix$4101                    lab4kfix
C:   00000E44  A$lab4kfix$4104                    lab4kfix
C:   00000E44  C$lab4kfix.c$430$2$173             lab4kfix
C:   00000E46  A$lab4kfix$4105                    lab4kfix
C:   00000E48  A$lab4kfix$4106                    lab4kfix
C:   00000E4A  A$lab4kfix$4107                    lab4kfix
C:   00000E4C  A$lab4kfix$4108                    lab4kfix
C:   00000E4E  A$lab4kfix$4109                    lab4kfix
C:   00000E50  A$lab4kfix$4110                    lab4kfix
C:   00000E53  A$lab4kfix$4111                    lab4kfix
C:   00000E55  A$lab4kfix$4112                    lab4kfix
C:   00000E57  A$lab4kfix$4113                    lab4kfix
C:   00000E59  A$lab4kfix$4114                    lab4kfix
C:   00000E5C  A$lab4kfix$4118                    lab4kfix
C:   00000E5C  C$lab4kfix.c$432$1$172             lab4kfix
C:   00000E5D  A$lab4kfix$4119                    lab4kfix
C:   00000E5F  A$lab4kfix$4120                    lab4kfix
C:   00000E61  A$lab4kfix$4121                    lab4kfix
C:   00000E63  A$lab4kfix$4122                    lab4kfix
C:   00000E65  A$lab4kfix$4123                    lab4kfix
C:   00000E67  A$lab4kfix$4124                    lab4kfix
ASxxxx Linker V03.00 + NoICE + sdld,  page 74.
Hexadecimal  [32-Bits]

Area                                    Addr        Size        Decimal Bytes (Attributes)
--------------------------------        ----        ----        ------- ----- ------------
CSEG                                000000D4    00001ADD =        6877. bytes (REL,CON,CODE)

      Value  Global                              Global Defined In Module
      -----  --------------------------------   ------------------------
C:   00000E69  A$lab4kfix$4125                    lab4kfix
C:   00000E6C  A$lab4kfix$4129                    lab4kfix
C:   00000E6C  C$lab4kfix.c$434$1$172             lab4kfix
C:   00000E6F  A$lab4kfix$4130                    lab4kfix
C:   00000E72  A$lab4kfix$4131                    lab4kfix
C:   00000E75  A$lab4kfix$4132                    lab4kfix
C:   00000E77  A$lab4kfix$4133                    lab4kfix
C:   00000E79  A$lab4kfix$4134                    lab4kfix
C:   00000E7B  A$lab4kfix$4135                    lab4kfix
C:   00000E7C  A$lab4kfix$4136                    lab4kfix
C:   00000E7E  A$lab4kfix$4137                    lab4kfix
C:   00000E80  A$lab4kfix$4138                    lab4kfix
C:   00000E82  A$lab4kfix$4139                    lab4kfix
C:   00000E84  A$lab4kfix$4140                    lab4kfix
C:   00000E87  A$lab4kfix$4141                    lab4kfix
C:   00000E8A  A$lab4kfix$4142                    lab4kfix
C:   00000E8C  A$lab4kfix$4143                    lab4kfix
C:   00000E8F  A$lab4kfix$4144                    lab4kfix
C:   00000E91  A$lab4kfix$4145                    lab4kfix
C:   00000E93  A$lab4kfix$4146                    lab4kfix
C:   00000E95  A$lab4kfix$4147                    lab4kfix
C:   00000E96  A$lab4kfix$4148                    lab4kfix
C:   00000E98  A$lab4kfix$4149                    lab4kfix
C:   00000E9A  A$lab4kfix$4150                    lab4kfix
C:   00000E9C  A$lab4kfix$4151                    lab4kfix
C:   00000E9F  A$lab4kfix$4152                    lab4kfix
C:   00000EA0  A$lab4kfix$4153                    lab4kfix
C:   00000EA1  A$lab4kfix$4154                    lab4kfix
C:   00000EA2  A$lab4kfix$4155                    lab4kfix
C:   00000EA3  A$lab4kfix$4156                    lab4kfix
C:   00000EA4  A$lab4kfix$4157                    lab4kfix
C:   00000EA6  A$lab4kfix$4158                    lab4kfix
C:   00000EA8  A$lab4kfix$4159                    lab4kfix
C:   00000EAA  A$lab4kfix$4160                    lab4kfix
C:   00000EAC  A$lab4kfix$4161                    lab4kfix
C:   00000EAE  A$lab4kfix$4162                    lab4kfix
C:   00000EB0  A$lab4kfix$4163                    lab4kfix
C:   00000EB3  A$lab4kfix$4164                    lab4kfix
C:   00000EB5  A$lab4kfix$4165                    lab4kfix
C:   00000EB7  A$lab4kfix$4166                    lab4kfix
C:   00000EB9  A$lab4kfix$4167                    lab4kfix
C:   00000EBA  A$lab4kfix$4168                    lab4kfix
C:   00000EBC  A$lab4kfix$4169                    lab4kfix
C:   00000EBE  A$lab4kfix$4170                    lab4kfix
C:   00000EC0  A$lab4kfix$4171                    lab4kfix
C:   00000EC2  A$lab4kfix$4172                    lab4kfix
C:   00000EC4  A$lab4kfix$4173                    lab4kfix
C:   00000EC6  A$lab4kfix$4174                    lab4kfix
C:   00000EC8  A$lab4kfix$4175                    lab4kfix
C:   00000ECA  A$lab4kfix$4176                    lab4kfix
C:   00000ECC  A$lab4kfix$4177                    lab4kfix
ASxxxx Linker V03.00 + NoICE + sdld,  page 75.
Hexadecimal  [32-Bits]

Area                                    Addr        Size        Decimal Bytes (Attributes)
--------------------------------        ----        ----        ------- ----- ------------
CSEG                                000000D4    00001ADD =        6877. bytes (REL,CON,CODE)

      Value  Global                              Global Defined In Module
      -----  --------------------------------   ------------------------
C:   00000ECE  A$lab4kfix$4178                    lab4kfix
C:   00000ED0  A$lab4kfix$4179                    lab4kfix
C:   00000ED1  A$lab4kfix$4180                    lab4kfix
C:   00000ED4  A$lab4kfix$4181                    lab4kfix
C:   00000ED6  A$lab4kfix$4182                    lab4kfix
C:   00000ED8  A$lab4kfix$4183                    lab4kfix
C:   00000EDA  A$lab4kfix$4184                    lab4kfix
C:   00000EDB  A$lab4kfix$4185                    lab4kfix
C:   00000EDD  A$lab4kfix$4186                    lab4kfix
C:   00000EDF  A$lab4kfix$4187                    lab4kfix
C:   00000EE1  A$lab4kfix$4188                    lab4kfix
C:   00000EE3  A$lab4kfix$4189                    lab4kfix
C:   00000EE5  A$lab4kfix$4190                    lab4kfix
C:   00000EE7  A$lab4kfix$4191                    lab4kfix
C:   00000EE8  A$lab4kfix$4192                    lab4kfix
C:   00000EEB  A$lab4kfix$4193                    lab4kfix
C:   00000EEE  A$lab4kfix$4194                    lab4kfix
C:   00000EF1  A$lab4kfix$4197                    lab4kfix
C:   00000EF1  C$lab4kfix.c$435$2$174             lab4kfix
C:   00000EF3  A$lab4kfix$4198                    lab4kfix
C:   00000EF5  A$lab4kfix$4199                    lab4kfix
C:   00000EF7  A$lab4kfix$4200                    lab4kfix
C:   00000EF9  A$lab4kfix$4201                    lab4kfix
C:   00000EFB  A$lab4kfix$4202                    lab4kfix
C:   00000EFD  A$lab4kfix$4203                    lab4kfix
C:   00000F00  A$lab4kfix$4204                    lab4kfix
C:   00000F02  A$lab4kfix$4205                    lab4kfix
C:   00000F04  A$lab4kfix$4206                    lab4kfix
C:   00000F06  A$lab4kfix$4207                    lab4kfix
C:   00000F08  A$lab4kfix$4211                    lab4kfix
C:   00000F08  C$lab4kfix.c$438$1$172             lab4kfix
C:   00000F0A  A$lab4kfix$4212                    lab4kfix
C:   00000F0C  A$lab4kfix$4213                    lab4kfix
C:   00000F0E  A$lab4kfix$4214                    lab4kfix
C:   00000F10  A$lab4kfix$4215                    lab4kfix
C:   00000F12  A$lab4kfix$4216                    lab4kfix
C:   00000F14  A$lab4kfix$4217                    lab4kfix
C:   00000F17  A$lab4kfix$4218                    lab4kfix
C:   00000F19  A$lab4kfix$4219                    lab4kfix
C:   00000F1B  A$lab4kfix$4220                    lab4kfix
C:   00000F1D  A$lab4kfix$4224                    lab4kfix
C:   00000F1D  C$lab4kfix.c$440$1$172             lab4kfix
C:   00000F20  A$lab4kfix$4225                    lab4kfix
C:   00000F21  A$lab4kfix$4226                    lab4kfix
C:   00000F22  A$lab4kfix$4227                    lab4kfix
C:   00000F23  A$lab4kfix$4228                    lab4kfix
C:   00000F24  A$lab4kfix$4229                    lab4kfix
C:   00000F25  A$lab4kfix$4230                    lab4kfix
C:   00000F26  A$lab4kfix$4231                    lab4kfix
C:   00000F27  A$lab4kfix$4232                    lab4kfix
C:   00000F29  A$lab4kfix$4233                    lab4kfix
ASxxxx Linker V03.00 + NoICE + sdld,  page 76.
Hexadecimal  [32-Bits]

Area                                    Addr        Size        Decimal Bytes (Attributes)
--------------------------------        ----        ----        ------- ----- ------------
CSEG                                000000D4    00001ADD =        6877. bytes (REL,CON,CODE)

      Value  Global                              Global Defined In Module
      -----  --------------------------------   ------------------------
C:   00000F2A  A$lab4kfix$4234                    lab4kfix
C:   00000F2C  A$lab4kfix$4235                    lab4kfix
C:   00000F2E  A$lab4kfix$4238                    lab4kfix
C:   00000F2E  C$lab4kfix.c$441$1$172             lab4kfix
C:   00000F31  A$lab4kfix$4239                    lab4kfix
C:   00000F32  A$lab4kfix$4240                    lab4kfix
C:   00000F34  A$lab4kfix$4241                    lab4kfix
C:   00000F35  A$lab4kfix$4242                    lab4kfix
C:   00000F36  A$lab4kfix$4243                    lab4kfix
C:   00000F38  A$lab4kfix$4247                    lab4kfix
C:   00000F38  C$lab4kfix.c$442$1$172             lab4kfix
C:   00000F3B  A$lab4kfix$4248                    lab4kfix
C:   00000F3C  A$lab4kfix$4249                    lab4kfix
C:   00000F3D  A$lab4kfix$4250                    lab4kfix
C:   00000F3E  A$lab4kfix$4251                    lab4kfix
C:   00000F3F  A$lab4kfix$4252                    lab4kfix
C:   00000F40  A$lab4kfix$4253                    lab4kfix
C:   00000F41  A$lab4kfix$4254                    lab4kfix
C:   00000F43  A$lab4kfix$4255                    lab4kfix
C:   00000F44  A$lab4kfix$4256                    lab4kfix
C:   00000F46  A$lab4kfix$4257                    lab4kfix
C:   00000F47  A$lab4kfix$4258                    lab4kfix
C:   00000F49  A$lab4kfix$4261                    lab4kfix
C:   00000F49  C$lab4kfix.c$443$1$172             lab4kfix
C:   00000F4C  A$lab4kfix$4262                    lab4kfix
C:   00000F4D  A$lab4kfix$4263                    lab4kfix
C:   00000F4F  A$lab4kfix$4264                    lab4kfix
C:   00000F50  A$lab4kfix$4265                    lab4kfix
C:   00000F51  A$lab4kfix$4266                    lab4kfix
C:   00000F53  A$lab4kfix$4270                    lab4kfix
C:   00000F53  C$lab4kfix.c$445$1$172             lab4kfix
C:   00000F55  A$lab4kfix$4271                    lab4kfix
C:   00000F57  A$lab4kfix$4272                    lab4kfix
C:   00000F59  A$lab4kfix$4273                    lab4kfix
C:   00000F5B  A$lab4kfix$4274                    lab4kfix
C:   00000F5D  A$lab4kfix$4275                    lab4kfix
C:   00000F5F  A$lab4kfix$4276                    lab4kfix
C:   00000F61  A$lab4kfix$4277                    lab4kfix
C:   00000F63  A$lab4kfix$4278                    lab4kfix
C:   00000F66  A$lab4kfix$4279                    lab4kfix
C:   00000F68  A$lab4kfix$4280                    lab4kfix
C:   00000F6A  A$lab4kfix$4281                    lab4kfix
C:   00000F6C  A$lab4kfix$4284                    lab4kfix
C:   00000F6C  C$lab4kfix.c$446$1$172             lab4kfix
C:   00000F6E  A$lab4kfix$4285                    lab4kfix
C:   00000F70  A$lab4kfix$4286                    lab4kfix
C:   00000F72  A$lab4kfix$4287                    lab4kfix
C:   00000F74  A$lab4kfix$4288                    lab4kfix
C:   00000F76  A$lab4kfix$4289                    lab4kfix
C:   00000F78  A$lab4kfix$4290                    lab4kfix
C:   00000F7A  A$lab4kfix$4291                    lab4kfix
ASxxxx Linker V03.00 + NoICE + sdld,  page 77.
Hexadecimal  [32-Bits]

Area                                    Addr        Size        Decimal Bytes (Attributes)
--------------------------------        ----        ----        ------- ----- ------------
CSEG                                000000D4    00001ADD =        6877. bytes (REL,CON,CODE)

      Value  Global                              Global Defined In Module
      -----  --------------------------------   ------------------------
C:   00000F7C  A$lab4kfix$4292                    lab4kfix
C:   00000F7F  A$lab4kfix$4293                    lab4kfix
C:   00000F81  A$lab4kfix$4294                    lab4kfix
C:   00000F83  A$lab4kfix$4295                    lab4kfix
C:   00000F85  A$lab4kfix$4298                    lab4kfix
C:   00000F85  C$lab4kfix.c$447$1$172             lab4kfix
C:   00000F87  A$lab4kfix$4299                    lab4kfix
C:   00000F88  A$lab4kfix$4300                    lab4kfix
C:   00000F8A  A$lab4kfix$4301                    lab4kfix
C:   00000F8C  A$lab4kfix$4302                    lab4kfix
C:   00000F8E  A$lab4kfix$4303                    lab4kfix
C:   00000F90  A$lab4kfix$4304                    lab4kfix
C:   00000F92  A$lab4kfix$4307                    lab4kfix
C:   00000F92  C$lab4kfix.c$448$1$172             lab4kfix
C:   00000F92  XG$Set_Heading$0$0                 lab4kfix
C:   00000F93  A$lab4kfix$4320                    lab4kfix
C:   00000F93  C$lab4kfix.c$452$1$172             lab4kfix
C:   00000F93  C$lab4kfix.c$455$1$175             lab4kfix
C:   00000F93  G$ReadRanger$0$0                   lab4kfix
C:   00000F93  _ReadRanger                        lab4kfix
C:   00000F96  A$lab4kfix$4321                    lab4kfix
C:   00000F99  A$lab4kfix$4322                    lab4kfix
C:   00000F9C  A$lab4kfix$4323                    lab4kfix
C:   00000F9F  A$lab4kfix$4324                    lab4kfix
C:   00000FA2  A$lab4kfix$4325                    lab4kfix
C:   00000FA5  A$lab4kfix$4326                    lab4kfix
C:   00000FA8  A$lab4kfix$4329                    lab4kfix
C:   00000FA8  C$lab4kfix.c$457$1$175             lab4kfix
C:   00000FAA  A$lab4kfix$4330                    lab4kfix
C:   00000FAC  A$lab4kfix$4331                    lab4kfix
C:   00000FAE  A$lab4kfix$4332                    lab4kfix
C:   00000FB0  A$lab4kfix$4333                    lab4kfix
C:   00000FB1  A$lab4kfix$4334                    lab4kfix
C:   00000FB2  A$lab4kfix$4335                    lab4kfix
C:   00000FB4  A$lab4kfix$4336                    lab4kfix
C:   00000FB5  A$lab4kfix$4337                    lab4kfix
C:   00000FB6  A$lab4kfix$4338                    lab4kfix
C:   00000FB8  A$lab4kfix$4341                    lab4kfix
C:   00000FB8  C$lab4kfix.c$458$1$175             lab4kfix
C:   00000FBB  A$lab4kfix$4342                    lab4kfix
C:   00000FBE  A$lab4kfix$4345                    lab4kfix
C:   00000FBE  C$lab4kfix.c$460$1$175             lab4kfix
C:   00000FBE  XG$ReadRanger$0$0                  lab4kfix
C:   00000FBF  A$lab4kfix$4358                    lab4kfix
C:   00000FBF  C$lab4kfix.c$462$1$175             lab4kfix
C:   00000FBF  C$lab4kfix.c$464$1$176             lab4kfix
C:   00000FBF  G$ReadCompass$0$0                  lab4kfix
C:   00000FBF  _ReadCompass                       lab4kfix
C:   00000FC2  A$lab4kfix$4359                    lab4kfix
C:   00000FC5  A$lab4kfix$4360                    lab4kfix
C:   00000FC8  A$lab4kfix$4361                    lab4kfix
ASxxxx Linker V03.00 + NoICE + sdld,  page 78.
Hexadecimal  [32-Bits]

Area                                    Addr        Size        Decimal Bytes (Attributes)
--------------------------------        ----        ----        ------- ----- ------------
CSEG                                000000D4    00001ADD =        6877. bytes (REL,CON,CODE)

      Value  Global                              Global Defined In Module
      -----  --------------------------------   ------------------------
C:   00000FCB  A$lab4kfix$4362                    lab4kfix
C:   00000FCE  A$lab4kfix$4363                    lab4kfix
C:   00000FD1  A$lab4kfix$4364                    lab4kfix
C:   00000FD4  A$lab4kfix$4367                    lab4kfix
C:   00000FD4  C$lab4kfix.c$465$1$176             lab4kfix
C:   00000FD6  A$lab4kfix$4368                    lab4kfix
C:   00000FD8  A$lab4kfix$4369                    lab4kfix
C:   00000FDA  A$lab4kfix$4370                    lab4kfix
C:   00000FDC  A$lab4kfix$4371                    lab4kfix
C:   00000FDD  A$lab4kfix$4372                    lab4kfix
C:   00000FDE  A$lab4kfix$4373                    lab4kfix
C:   00000FE0  A$lab4kfix$4374                    lab4kfix
C:   00000FE1  A$lab4kfix$4375                    lab4kfix
C:   00000FE2  A$lab4kfix$4376                    lab4kfix
C:   00000FE4  A$lab4kfix$4379                    lab4kfix
C:   00000FE4  C$lab4kfix.c$466$1$176             lab4kfix
C:   00000FE7  A$lab4kfix$4380                    lab4kfix
C:   00000FEA  A$lab4kfix$4383                    lab4kfix
C:   00000FEA  C$lab4kfix.c$467$1$176             lab4kfix
C:   00000FEA  XG$ReadCompass$0$0                 lab4kfix
C:   00000FEB  A$lab4kfix$4396                    lab4kfix
C:   00000FEB  C$lab4kfix.c$469$1$176             lab4kfix
C:   00000FEB  G$read_ADC_value$0$0               lab4kfix
C:   00000FEB  _read_ADC_value                    lab4kfix
C:   00000FEE  A$lab4kfix$4399                    lab4kfix
C:   00000FEE  C$lab4kfix.c$472$1$178             lab4kfix
C:   00000FF1  A$lab4kfix$4402                    lab4kfix
C:   00000FF1  C$lab4kfix.c$473$1$178             lab4kfix
C:   00000FF4  A$lab4kfix$4406                    lab4kfix
C:   00000FF4  C$lab4kfix.c$474$1$178             lab4kfix
C:   00000FF6  A$lab4kfix$4407                    lab4kfix
C:   00000FF9  A$lab4kfix$4410                    lab4kfix
C:   00000FF9  C$lab4kfix.c$475$1$178             lab4kfix
C:   00000FFC  A$lab4kfix$4413                    lab4kfix
C:   00000FFC  C$lab4kfix.c$476$1$178             lab4kfix
C:   00000FFC  XG$read_ADC_value$0$0              lab4kfix
C:   00000FFD  A$lab4kfix$4428                    lab4kfix
C:   00000FFD  C$lab4kfix.c$478$1$178             lab4kfix
C:   00000FFD  C$lab4kfix.c$479$1$180             lab4kfix
C:   00000FFD  G$read_battery_voltage$0$0         lab4kfix
C:   00000FFD  _read_battery_voltage              lab4kfix
C:   00001000  A$lab4kfix$4429                    lab4kfix
C:   00001002  A$lab4kfix$4430                    lab4kfix
C:   00001004  A$lab4kfix$4431                    lab4kfix
C:   00001006  A$lab4kfix$4432                    lab4kfix
C:   00001007  A$lab4kfix$4433                    lab4kfix
C:   00001009  A$lab4kfix$4434                    lab4kfix
C:   0000100B  A$lab4kfix$4435                    lab4kfix
C:   0000100D  A$lab4kfix$4436                    lab4kfix
C:   0000100F  A$lab4kfix$4437                    lab4kfix
C:   00001012  A$lab4kfix$4438                    lab4kfix
ASxxxx Linker V03.00 + NoICE + sdld,  page 79.
Hexadecimal  [32-Bits]

Area                                    Addr        Size        Decimal Bytes (Attributes)
--------------------------------        ----        ----        ------- ----- ------------
CSEG                                000000D4    00001ADD =        6877. bytes (REL,CON,CODE)

      Value  Global                              Global Defined In Module
      -----  --------------------------------   ------------------------
C:   00001015  A$lab4kfix$4439                    lab4kfix
C:   00001017  A$lab4kfix$4440                    lab4kfix
C:   0000101A  A$lab4kfix$4441                    lab4kfix
C:   0000101C  A$lab4kfix$4442                    lab4kfix
C:   0000101E  A$lab4kfix$4443                    lab4kfix
C:   00001020  A$lab4kfix$4444                    lab4kfix
C:   00001021  A$lab4kfix$4445                    lab4kfix
C:   00001023  A$lab4kfix$4446                    lab4kfix
C:   00001025  A$lab4kfix$4447                    lab4kfix
C:   00001027  A$lab4kfix$4448                    lab4kfix
C:   00001028  A$lab4kfix$4449                    lab4kfix
C:   0000102A  A$lab4kfix$4450                    lab4kfix
C:   0000102C  A$lab4kfix$4451                    lab4kfix
C:   0000102E  A$lab4kfix$4452                    lab4kfix
C:   00001030  A$lab4kfix$4453                    lab4kfix
C:   00001032  A$lab4kfix$4454                    lab4kfix
C:   00001034  A$lab4kfix$4455                    lab4kfix
C:   00001036  A$lab4kfix$4456                    lab4kfix
C:   00001038  A$lab4kfix$4457                    lab4kfix
C:   0000103A  A$lab4kfix$4458                    lab4kfix
C:   0000103B  A$lab4kfix$4459                    lab4kfix
C:   0000103E  A$lab4kfix$4460                    lab4kfix
C:   00001040  A$lab4kfix$4461                    lab4kfix
C:   00001042  A$lab4kfix$4462                    lab4kfix
C:   00001044  A$lab4kfix$4463                    lab4kfix
C:   00001045  A$lab4kfix$4464                    lab4kfix
C:   00001047  A$lab4kfix$4465                    lab4kfix
C:   00001049  A$lab4kfix$4466                    lab4kfix
C:   0000104B  A$lab4kfix$4467                    lab4kfix
C:   0000104D  A$lab4kfix$4468                    lab4kfix
C:   0000104F  A$lab4kfix$4469                    lab4kfix
C:   00001051  A$lab4kfix$4470                    lab4kfix
C:   00001053  A$lab4kfix$4471                    lab4kfix
C:   00001056  A$lab4kfix$4472                    lab4kfix
C:   00001059  A$lab4kfix$4473                    lab4kfix
C:   0000105B  A$lab4kfix$4474                    lab4kfix
C:   0000105E  A$lab4kfix$4475                    lab4kfix
C:   00001060  A$lab4kfix$4476                    lab4kfix
C:   00001062  A$lab4kfix$4477                    lab4kfix
C:   00001064  A$lab4kfix$4478                    lab4kfix
C:   00001065  A$lab4kfix$4479                    lab4kfix
C:   00001067  A$lab4kfix$4480                    lab4kfix
C:   00001069  A$lab4kfix$4481                    lab4kfix
C:   0000106B  A$lab4kfix$4482                    lab4kfix
C:   0000106C  A$lab4kfix$4483                    lab4kfix
C:   0000106E  A$lab4kfix$4484                    lab4kfix
C:   00001070  A$lab4kfix$4485                    lab4kfix
C:   00001072  A$lab4kfix$4486                    lab4kfix
C:   00001074  A$lab4kfix$4487                    lab4kfix
C:   00001076  A$lab4kfix$4488                    lab4kfix
C:   00001078  A$lab4kfix$4489                    lab4kfix
ASxxxx Linker V03.00 + NoICE + sdld,  page 80.
Hexadecimal  [32-Bits]

Area                                    Addr        Size        Decimal Bytes (Attributes)
--------------------------------        ----        ----        ------- ----- ------------
CSEG                                000000D4    00001ADD =        6877. bytes (REL,CON,CODE)

      Value  Global                              Global Defined In Module
      -----  --------------------------------   ------------------------
C:   0000107A  A$lab4kfix$4490                    lab4kfix
C:   0000107C  A$lab4kfix$4491                    lab4kfix
C:   0000107E  A$lab4kfix$4492                    lab4kfix
C:   0000107F  A$lab4kfix$4493                    lab4kfix
C:   00001082  A$lab4kfix$4494                    lab4kfix
C:   00001084  A$lab4kfix$4495                    lab4kfix
C:   00001086  A$lab4kfix$4496                    lab4kfix
C:   00001088  A$lab4kfix$4497                    lab4kfix
C:   00001089  A$lab4kfix$4498                    lab4kfix
C:   0000108B  A$lab4kfix$4499                    lab4kfix
C:   0000108D  A$lab4kfix$4500                    lab4kfix
C:   0000108F  A$lab4kfix$4501                    lab4kfix
C:   00001091  A$lab4kfix$4502                    lab4kfix
C:   00001093  A$lab4kfix$4503                    lab4kfix
C:   00001095  A$lab4kfix$4504                    lab4kfix
C:   00001097  A$lab4kfix$4505                    lab4kfix
C:   0000109A  A$lab4kfix$4506                    lab4kfix
C:   0000109D  A$lab4kfix$4507                    lab4kfix
C:   0000109F  A$lab4kfix$4508                    lab4kfix
C:   000010A2  A$lab4kfix$4509                    lab4kfix
C:   000010A4  A$lab4kfix$4510                    lab4kfix
C:   000010A6  A$lab4kfix$4511                    lab4kfix
C:   000010A8  A$lab4kfix$4512                    lab4kfix
C:   000010A9  A$lab4kfix$4513                    lab4kfix
C:   000010AB  A$lab4kfix$4514                    lab4kfix
C:   000010AD  A$lab4kfix$4515                    lab4kfix
C:   000010AF  A$lab4kfix$4516                    lab4kfix
C:   000010B1  A$lab4kfix$4517                    lab4kfix
C:   000010B3  A$lab4kfix$4518                    lab4kfix
C:   000010B5  A$lab4kfix$4519                    lab4kfix
C:   000010B6  A$lab4kfix$4520                    lab4kfix
C:   000010B9  A$lab4kfix$4523                    lab4kfix
C:   000010B9  C$lab4kfix.c$480$1$180             lab4kfix
C:   000010BC  A$lab4kfix$4524                    lab4kfix
C:   000010BF  A$lab4kfix$4527                    lab4kfix
C:   000010BF  C$lab4kfix.c$481$1$180             lab4kfix
C:   000010BF  XG$read_battery_voltage$0$0        lab4kfix
C:   000010C0  ___fssub                           _fssub
C:   000010CB  ___fsmul                           _fsmul
C:   0000116E  fsgetargs                          _fsget2args
C:   0000119C  fs_normalize_a                     _fsnormalize
C:   000011CF  __gptrput                          _gptrput
C:   000011EA  __mulint                           _mulint
C:   000011EA  __mulint_dummy                     _mulint
C:   00001277  _vsprintf                          sprintf
C:   000012B4  _sprintf                           sprintf
C:   00001302  ___fsadd                           _fsadd
C:   00001305  fsadd_direct_entry                 _fsadd
C:   0000135B  ___sint2fs                         _sint2fs
C:   00001368  ___uint2fs                         _uint2fs
C:   00001374  ___fs2uint                         _fs2uint
ASxxxx Linker V03.00 + NoICE + sdld,  page 81.
Hexadecimal  [32-Bits]

Area                                    Addr        Size        Decimal Bytes (Attributes)
--------------------------------        ----        ----        ------- ----- ------------
CSEG                                000000D4    00001ADD =        6877. bytes (REL,CON,CODE)

      Value  Global                              Global Defined In Module
      -----  --------------------------------   ------------------------
C:   0000137F  fs_round_and_return                _fsreturnval
C:   00001397  fs_zerocheck_return                _fsreturnval
C:   000013A0  fs_return_zero                     _fsreturnval
C:   000013A8  fs_direct_return                   _fsreturnval
C:   000013B6  fs_return_inf                      _fsreturnval
C:   000013C3  fs_return_nan                      _fsreturnval
C:   000013D9  _vprintf                           vprintf
C:   000013F2  _printf                            vprintf
C:   000014C9  __print_format                     printf_large
C:   000019D5  fs_swap_a_b                        _fsswapargs
C:   000019EF  _strlen                            _strlen
C:   00001A07  ___fsdiv                           _fsdiv
C:   00001ACA  __gptrget                          _gptrget
C:   00001AE6  ___uchar2fs                        _uchar2fs
C:   00001AF1  ___slong2fs                        _slong2fs
C:   00001AFA  slong2fs_doit                      _slong2fs
C:   00001B1E  ___ulong2fs                        _ulong2fs
C:   00001B27  ulong2fs_doit                      _ulong2fs
C:   00001B31  fs_rshift_a                        _fsrshift
C:   00001B74  __sdcc_external_startup            _startup
C:   00001B78  ___fs2ulong                        _fs2ulong
C:   00001B7A  fs2ulong_begin                     _fs2ulong
C:   00001B9F  fsgetarg                           _fsget1arg

ASxxxx Linker V03.00 + NoICE + sdld,  page 82.
Hexadecimal  [32-Bits]

Area                                    Addr        Size        Decimal Bytes (Attributes)
--------------------------------        ----        ----        ------- ----- ------------
CONST                               00001BB1    000001D4 =         468. bytes (REL,CON,CODE)

      Value  Global                              Global Defined In Module
      -----  --------------------------------   ------------------------
C:   00001BB1  Flab4kfix$__str_0$0$0              lab4kfix
C:   00001BC7  Flab4kfix$__str_1$0$0              lab4kfix
C:   00001BD7  Flab4kfix$__str_2$0$0              lab4kfix
C:   00001BDA  Flab4kfix$__str_3$0$0              lab4kfix
C:   00001C04  Flab4kfix$__str_4$0$0              lab4kfix
C:   00001C29  Flab4kfix$__str_5$0$0              lab4kfix
C:   00001C4B  Flab4kfix$__str_6$0$0              lab4kfix
C:   00001C66  Flab4kfix$__str_7$0$0              lab4kfix
C:   00001C96  Flab4kfix$__str_8$0$0              lab4kfix
C:   00001CA8  Flab4kfix$__str_9$0$0              lab4kfix
C:   00001CBD  Flab4kfix$__str_10$0$0             lab4kfix
C:   00001CD8  Flab4kfix$__str_11$0$0             lab4kfix
C:   00001CE3  Flab4kfix$__str_12$0$0             lab4kfix
C:   00001CF1  Flab4kfix$__str_13$0$0             lab4kfix
C:   00001D01  Flab4kfix$__str_14$0$0             lab4kfix
C:   00001D1B  Flab4kfix$__str_15$0$0             lab4kfix
C:   00001D2A  Flab4kfix$__str_16$0$0             lab4kfix
C:   00001D37  Flab4kfix$__str_17$0$0             lab4kfix
C:   00001D44  Flab4kfix$__str_18$0$0             lab4kfix
C:   00001D4D  Flab4kfix$__str_19$0$0             lab4kfix
C:   00001D63  Flab4kfix$__str_20$0$0             lab4kfix
ASxxxx Linker V03.00 + NoICE + sdld,  page 83.
Hexadecimal  [32-Bits]

Area                                    Addr        Size        Decimal Bytes (Attributes)
--------------------------------        ----        ----        ------- ----- ------------
XINIT                               00001D85    0000000C =          12. bytes (REL,CON,CODE)

      Value  Global                              Global Defined In Module
      -----  --------------------------------   ------------------------
C:   00001D85  Flab4kfix$__xinit_sPW_CENTER$0$0   lab4kfix
C:   00001D87  Flab4kfix$__xinit_sPW_MIN$0$0      lab4kfix
C:   00001D89  Flab4kfix$__xinit_sPW_MAX$0$0      lab4kfix
C:   00001D8B  Flab4kfix$__xinit_mPW_CENTER$0$0   lab4kfix
C:   00001D8D  Flab4kfix$__xinit_mPW_MIN$0$0      lab4kfix
C:   00001D8F  Flab4kfix$__xinit_mPW_MAX$0$0      lab4kfix
ASxxxx Linker V03.00 + NoICE + sdld,  page 84.

Files Linked                              [ module(s) ]

C:\Users\Tim\Downloads\lab4kfix.rel       [  ]


Libraries Linked                          [ object file ]

C:\Program Files\SDCC\bin\..\lib\small/libfloat.lib
                                          [ _fssub.rel ]
C:\Program Files\SDCC\bin\..\lib\small/libfloat.lib
                                          [ _fsmul.rel ]
C:\Program Files\SDCC\bin\..\lib\small/libfloat.lib
                                          [ _fsget2args.rel ]
C:\Program Files\SDCC\bin\..\lib\small/mcs51.lib
                                          [ crtclear.rel ]
C:\Program Files\SDCC\bin\..\lib\small/libfloat.lib
                                          [ _fsnormalize.rel ]
C:\Program Files\SDCC\bin\..\lib\small/mcs51.lib
                                          [ crtxinit.rel ]
C:\Program Files\SDCC\bin\..\lib\small/libsdcc.lib
                                          [ _gptrput.rel ]
C:\Program Files\SDCC\bin\..\lib\small/libint.lib
                                          [ _mulint.rel ]
C:\Program Files\SDCC\bin\..\lib\small/libsdcc.lib
                                          [ sprintf.rel ]
C:\Program Files\SDCC\bin\..\lib\small/mcs51.lib
                                          [ crtxclear.rel ]
C:\Program Files\SDCC\bin\..\lib\small/libfloat.lib
                                          [ _fsadd.rel ]
C:\Program Files\SDCC\bin\..\lib\small/libfloat.lib
                                          [ _sint2fs.rel ]
C:\Program Files\SDCC\bin\..\lib\small/libfloat.lib
                                          [ _uint2fs.rel ]
C:\Program Files\SDCC\bin\..\lib\small/libfloat.lib
                                          [ _fs2uint.rel ]
C:\Program Files\SDCC\bin\..\lib\small/libfloat.lib
                                          [ _fsreturnval.rel ]
C:\Program Files\SDCC\bin\..\lib\small/libsdcc.lib
                                          [ _bp.rel ]
C:\Program Files\SDCC\bin\..\lib\small/libsdcc.lib
                                          [ vprintf.rel ]
C:\Program Files\SDCC\bin\..\lib\small/libsdcc.lib
                                          [ printf_large.rel ]
C:\Program Files\SDCC\bin\..\lib\small/libfloat.lib
                                          [ _fsswapargs.rel ]
C:\Program Files\SDCC\bin\..\lib\small/libsdcc.lib
                                          [ _strlen.rel ]
C:\Program Files\SDCC\bin\..\lib\small/libfloat.lib
                                          [ _fsdiv.rel ]
C:\Program Files\SDCC\bin\..\lib\small/mcs51.lib
                                          [ crtstart.rel ]
C:\Program Files\SDCC\bin\..\lib\small/libsdcc.lib
                                          [ _gptrget.rel ]
C:\Program Files\SDCC\bin\..\lib\small/libfloat.lib
                                          [ _uchar2fs.rel ]
C:\Program Files\SDCC\bin\..\lib\small/libfloat.lib
                                          [ _slong2fs.rel ]
C:\Program Files\SDCC\bin\..\lib\small/libfloat.lib
                                          [ _ulong2fs.rel ]
C:\Program Files\SDCC\bin\..\lib\small/libfloat.lib
                                          [ _fsrshift.rel ]
C:\Program Files\SDCC\bin\..\lib\small/libsdcc.lib
                                          [ _startup.rel ]
C:\Program Files\SDCC\bin\..\lib\small/libfloat.lib
                                          [ _fs2ulong.rel ]
C:\Program Files\SDCC\bin\..\lib\small/libfloat.lib
                                          [ _fsget1arg.rel ]

ASxxxx Linker V03.00 + NoICE + sdld,  page 85.

User Base Address Definitions

HOME = 0x0000
XSEG = 0x0001
PSEG = 0x0001
ISEG = 0x0000
BSEG = 0x0000

