                                      1 ;--------------------------------------------------------
                                      2 ; File Created by SDCC : free open source ANSI-C Compiler
                                      3 ; Version 3.6.0 #9615 (MINGW64)
                                      4 ;--------------------------------------------------------
                                      5 	.module lab2_func
                                      6 	.optsdcc -mmcs51 --model-small
                                      7 	
                                      8 ;--------------------------------------------------------
                                      9 ; Public variables in this module
                                     10 ;--------------------------------------------------------
                                     11 	.globl _read_AD_input
                                     12 	.globl _main
                                     13 	.globl _rand
                                     14 	.globl _putchar
                                     15 	.globl _getchar
                                     16 	.globl _printf
                                     17 	.globl _getchar_nw
                                     18 	.globl _Sys_Init
                                     19 	.globl _UART0_Init
                                     20 	.globl _SYSCLK_Init
                                     21 	.globl _SS1
                                     22 	.globl _SS0
                                     23 	.globl _BUZZER
                                     24 	.globl _LED3
                                     25 	.globl _LED2
                                     26 	.globl _LED1
                                     27 	.globl _LED0
                                     28 	.globl _PB3
                                     29 	.globl _PB1
                                     30 	.globl _PB2
                                     31 	.globl _PB0
                                     32 	.globl _BILED2
                                     33 	.globl _BILED1
                                     34 	.globl _SPIF
                                     35 	.globl _WCOL
                                     36 	.globl _MODF
                                     37 	.globl _RXOVRN
                                     38 	.globl _TXBSY
                                     39 	.globl _SLVSEL
                                     40 	.globl _MSTEN
                                     41 	.globl _SPIEN
                                     42 	.globl _AD0EN
                                     43 	.globl _ADCEN
                                     44 	.globl _AD0TM
                                     45 	.globl _ADCTM
                                     46 	.globl _AD0INT
                                     47 	.globl _ADCINT
                                     48 	.globl _AD0BUSY
                                     49 	.globl _ADBUSY
                                     50 	.globl _AD0CM1
                                     51 	.globl _ADSTM1
                                     52 	.globl _AD0CM0
                                     53 	.globl _ADSTM0
                                     54 	.globl _AD0WINT
                                     55 	.globl _ADWINT
                                     56 	.globl _AD0LJST
                                     57 	.globl _ADLJST
                                     58 	.globl _CF
                                     59 	.globl _CR
                                     60 	.globl _CCF4
                                     61 	.globl _CCF3
                                     62 	.globl _CCF2
                                     63 	.globl _CCF1
                                     64 	.globl _CCF0
                                     65 	.globl _CY
                                     66 	.globl _AC
                                     67 	.globl _F0
                                     68 	.globl _RS1
                                     69 	.globl _RS0
                                     70 	.globl _OV
                                     71 	.globl _F1
                                     72 	.globl _P
                                     73 	.globl _TF2
                                     74 	.globl _EXF2
                                     75 	.globl _RCLK
                                     76 	.globl _TCLK
                                     77 	.globl _EXEN2
                                     78 	.globl _TR2
                                     79 	.globl _CT2
                                     80 	.globl _CPRL2
                                     81 	.globl _BUSY
                                     82 	.globl _ENSMB
                                     83 	.globl _STA
                                     84 	.globl _STO
                                     85 	.globl _SI
                                     86 	.globl _AA
                                     87 	.globl _SMBFTE
                                     88 	.globl _SMBTOE
                                     89 	.globl _PT2
                                     90 	.globl _PS
                                     91 	.globl _PS0
                                     92 	.globl _PT1
                                     93 	.globl _PX1
                                     94 	.globl _PT0
                                     95 	.globl _PX0
                                     96 	.globl _P3_7
                                     97 	.globl _P3_6
                                     98 	.globl _P3_5
                                     99 	.globl _P3_4
                                    100 	.globl _P3_3
                                    101 	.globl _P3_2
                                    102 	.globl _P3_1
                                    103 	.globl _P3_0
                                    104 	.globl _EA
                                    105 	.globl _ET2
                                    106 	.globl _ES
                                    107 	.globl _ES0
                                    108 	.globl _ET1
                                    109 	.globl _EX1
                                    110 	.globl _ET0
                                    111 	.globl _EX0
                                    112 	.globl _P2_7
                                    113 	.globl _P2_6
                                    114 	.globl _P2_5
                                    115 	.globl _P2_4
                                    116 	.globl _P2_3
                                    117 	.globl _P2_2
                                    118 	.globl _P2_1
                                    119 	.globl _P2_0
                                    120 	.globl _S0MODE
                                    121 	.globl _SM00
                                    122 	.globl _SM0
                                    123 	.globl _SM10
                                    124 	.globl _SM1
                                    125 	.globl _MCE0
                                    126 	.globl _SM20
                                    127 	.globl _SM2
                                    128 	.globl _REN0
                                    129 	.globl _REN
                                    130 	.globl _TB80
                                    131 	.globl _TB8
                                    132 	.globl _RB80
                                    133 	.globl _RB8
                                    134 	.globl _TI0
                                    135 	.globl _TI
                                    136 	.globl _RI0
                                    137 	.globl _RI
                                    138 	.globl _P1_7
                                    139 	.globl _P1_6
                                    140 	.globl _P1_5
                                    141 	.globl _P1_4
                                    142 	.globl _P1_3
                                    143 	.globl _P1_2
                                    144 	.globl _P1_1
                                    145 	.globl _P1_0
                                    146 	.globl _TF1
                                    147 	.globl _TR1
                                    148 	.globl _TF0
                                    149 	.globl _TR0
                                    150 	.globl _IE1
                                    151 	.globl _IT1
                                    152 	.globl _IE0
                                    153 	.globl _IT0
                                    154 	.globl _P0_7
                                    155 	.globl _P0_6
                                    156 	.globl _P0_5
                                    157 	.globl _P0_4
                                    158 	.globl _P0_3
                                    159 	.globl _P0_2
                                    160 	.globl _P0_1
                                    161 	.globl _P0_0
                                    162 	.globl _PCA0CP4
                                    163 	.globl _PCA0CP3
                                    164 	.globl _PCA0CP2
                                    165 	.globl _PCA0CP1
                                    166 	.globl _PCA0CP0
                                    167 	.globl _PCA0
                                    168 	.globl _DAC1
                                    169 	.globl _DAC0
                                    170 	.globl _ADC0LT
                                    171 	.globl _ADC0GT
                                    172 	.globl _ADC0
                                    173 	.globl _RCAP4
                                    174 	.globl _TMR4
                                    175 	.globl _TMR3RL
                                    176 	.globl _TMR3
                                    177 	.globl _RCAP2
                                    178 	.globl _TMR2
                                    179 	.globl _TMR1
                                    180 	.globl _TMR0
                                    181 	.globl _WDTCN
                                    182 	.globl _PCA0CPH4
                                    183 	.globl _PCA0CPH3
                                    184 	.globl _PCA0CPH2
                                    185 	.globl _PCA0CPH1
                                    186 	.globl _PCA0CPH0
                                    187 	.globl _PCA0H
                                    188 	.globl _SPI0CN
                                    189 	.globl _EIP2
                                    190 	.globl _EIP1
                                    191 	.globl _TH4
                                    192 	.globl _TL4
                                    193 	.globl _SADDR1
                                    194 	.globl _SBUF1
                                    195 	.globl _SCON1
                                    196 	.globl _B
                                    197 	.globl _RSTSRC
                                    198 	.globl _PCA0CPL4
                                    199 	.globl _PCA0CPL3
                                    200 	.globl _PCA0CPL2
                                    201 	.globl _PCA0CPL1
                                    202 	.globl _PCA0CPL0
                                    203 	.globl _PCA0L
                                    204 	.globl _ADC0CN
                                    205 	.globl _EIE2
                                    206 	.globl _EIE1
                                    207 	.globl _RCAP4H
                                    208 	.globl _RCAP4L
                                    209 	.globl _XBR2
                                    210 	.globl _XBR1
                                    211 	.globl _XBR0
                                    212 	.globl _ACC
                                    213 	.globl _PCA0CPM4
                                    214 	.globl _PCA0CPM3
                                    215 	.globl _PCA0CPM2
                                    216 	.globl _PCA0CPM1
                                    217 	.globl _PCA0CPM0
                                    218 	.globl _PCA0MD
                                    219 	.globl _PCA0CN
                                    220 	.globl _DAC1CN
                                    221 	.globl _DAC1H
                                    222 	.globl _DAC1L
                                    223 	.globl _DAC0CN
                                    224 	.globl _DAC0H
                                    225 	.globl _DAC0L
                                    226 	.globl _REF0CN
                                    227 	.globl _PSW
                                    228 	.globl _SMB0CR
                                    229 	.globl _TH2
                                    230 	.globl _TL2
                                    231 	.globl _RCAP2H
                                    232 	.globl _RCAP2L
                                    233 	.globl _T4CON
                                    234 	.globl _T2CON
                                    235 	.globl _ADC0LTH
                                    236 	.globl _ADC0LTL
                                    237 	.globl _ADC0GTH
                                    238 	.globl _ADC0GTL
                                    239 	.globl _SMB0ADR
                                    240 	.globl _SMB0DAT
                                    241 	.globl _SMB0STA
                                    242 	.globl _SMB0CN
                                    243 	.globl _ADC0H
                                    244 	.globl _ADC0L
                                    245 	.globl _P1MDIN
                                    246 	.globl _ADC0CF
                                    247 	.globl _AMX0SL
                                    248 	.globl _AMX0CF
                                    249 	.globl _SADEN0
                                    250 	.globl _IP
                                    251 	.globl _FLACL
                                    252 	.globl _FLSCL
                                    253 	.globl _P74OUT
                                    254 	.globl _OSCICN
                                    255 	.globl _OSCXCN
                                    256 	.globl _P3
                                    257 	.globl __XPAGE
                                    258 	.globl _EMI0CN
                                    259 	.globl _SADEN1
                                    260 	.globl _P3IF
                                    261 	.globl _AMX1SL
                                    262 	.globl _ADC1CF
                                    263 	.globl _ADC1CN
                                    264 	.globl _SADDR0
                                    265 	.globl _IE
                                    266 	.globl _P3MDOUT
                                    267 	.globl _PRT3CF
                                    268 	.globl _P2MDOUT
                                    269 	.globl _PRT2CF
                                    270 	.globl _P1MDOUT
                                    271 	.globl _PRT1CF
                                    272 	.globl _P0MDOUT
                                    273 	.globl _PRT0CF
                                    274 	.globl _EMI0CF
                                    275 	.globl _EMI0TC
                                    276 	.globl _P2
                                    277 	.globl _CPT1CN
                                    278 	.globl _CPT0CN
                                    279 	.globl _SPI0CKR
                                    280 	.globl _ADC1
                                    281 	.globl _SPI0DAT
                                    282 	.globl _SPI0CFG
                                    283 	.globl _SBUF0
                                    284 	.globl _SBUF
                                    285 	.globl _SCON0
                                    286 	.globl _SCON
                                    287 	.globl _P7
                                    288 	.globl _TMR3H
                                    289 	.globl _TMR3L
                                    290 	.globl _TMR3RLH
                                    291 	.globl _TMR3RLL
                                    292 	.globl _TMR3CN
                                    293 	.globl _P1
                                    294 	.globl _PSCTL
                                    295 	.globl _CKCON
                                    296 	.globl _TH1
                                    297 	.globl _TH0
                                    298 	.globl _TL1
                                    299 	.globl _TL0
                                    300 	.globl _TMOD
                                    301 	.globl _TCON
                                    302 	.globl _PCON
                                    303 	.globl _P6
                                    304 	.globl _P5
                                    305 	.globl _P4
                                    306 	.globl _DPH
                                    307 	.globl _DPL
                                    308 	.globl _SP
                                    309 	.globl _P0
                                    310 	.globl _aligned_alloc_PARM_2
                                    311 	.globl _currCounts
                                    312 	.globl _led_on
                                    313 	.globl _delay
                                    314 	.globl _blink_rate
                                    315 	.globl _ADresult
                                    316 	.globl _blink
                                    317 	.globl _whichLED
                                    318 	.globl _adc
                                    319 	.globl _currLED
                                    320 	.globl _rep
                                    321 	.globl _seq
                                    322 	.globl _alive
                                    323 	.globl _times
                                    324 	.globl _light
                                    325 	.globl _speed
                                    326 	.globl _i
                                    327 	.globl _input
                                    328 	.globl _score
                                    329 	.globl _Counts
                                    330 	.globl _Port_Init
                                    331 	.globl _Interrupt_Init
                                    332 	.globl _Timer_Init
                                    333 	.globl _Timer0_ISR
                                    334 	.globl _ADC_Init
                                    335 	.globl _random
                                    336 	.globl _clear
                                    337 	.globl _CDS
                                    338 	.globl _mode0
                                    339 	.globl _mode1
                                    340 	.globl _mode2
                                    341 	.globl _mode3
                                    342 	.globl _theBuzz
                                    343 	.globl _lightLED
                                    344 	.globl _lightLEDmode3
                                    345 	.globl _buttonPress
                                    346 	.globl _game
                                    347 ;--------------------------------------------------------
                                    348 ; special function registers
                                    349 ;--------------------------------------------------------
                                    350 	.area RSEG    (ABS,DATA)
      000000                        351 	.org 0x0000
                           000080   352 G$P0$0$0 == 0x0080
                           000080   353 _P0	=	0x0080
                           000081   354 G$SP$0$0 == 0x0081
                           000081   355 _SP	=	0x0081
                           000082   356 G$DPL$0$0 == 0x0082
                           000082   357 _DPL	=	0x0082
                           000083   358 G$DPH$0$0 == 0x0083
                           000083   359 _DPH	=	0x0083
                           000084   360 G$P4$0$0 == 0x0084
                           000084   361 _P4	=	0x0084
                           000085   362 G$P5$0$0 == 0x0085
                           000085   363 _P5	=	0x0085
                           000086   364 G$P6$0$0 == 0x0086
                           000086   365 _P6	=	0x0086
                           000087   366 G$PCON$0$0 == 0x0087
                           000087   367 _PCON	=	0x0087
                           000088   368 G$TCON$0$0 == 0x0088
                           000088   369 _TCON	=	0x0088
                           000089   370 G$TMOD$0$0 == 0x0089
                           000089   371 _TMOD	=	0x0089
                           00008A   372 G$TL0$0$0 == 0x008a
                           00008A   373 _TL0	=	0x008a
                           00008B   374 G$TL1$0$0 == 0x008b
                           00008B   375 _TL1	=	0x008b
                           00008C   376 G$TH0$0$0 == 0x008c
                           00008C   377 _TH0	=	0x008c
                           00008D   378 G$TH1$0$0 == 0x008d
                           00008D   379 _TH1	=	0x008d
                           00008E   380 G$CKCON$0$0 == 0x008e
                           00008E   381 _CKCON	=	0x008e
                           00008F   382 G$PSCTL$0$0 == 0x008f
                           00008F   383 _PSCTL	=	0x008f
                           000090   384 G$P1$0$0 == 0x0090
                           000090   385 _P1	=	0x0090
                           000091   386 G$TMR3CN$0$0 == 0x0091
                           000091   387 _TMR3CN	=	0x0091
                           000092   388 G$TMR3RLL$0$0 == 0x0092
                           000092   389 _TMR3RLL	=	0x0092
                           000093   390 G$TMR3RLH$0$0 == 0x0093
                           000093   391 _TMR3RLH	=	0x0093
                           000094   392 G$TMR3L$0$0 == 0x0094
                           000094   393 _TMR3L	=	0x0094
                           000095   394 G$TMR3H$0$0 == 0x0095
                           000095   395 _TMR3H	=	0x0095
                           000096   396 G$P7$0$0 == 0x0096
                           000096   397 _P7	=	0x0096
                           000098   398 G$SCON$0$0 == 0x0098
                           000098   399 _SCON	=	0x0098
                           000098   400 G$SCON0$0$0 == 0x0098
                           000098   401 _SCON0	=	0x0098
                           000099   402 G$SBUF$0$0 == 0x0099
                           000099   403 _SBUF	=	0x0099
                           000099   404 G$SBUF0$0$0 == 0x0099
                           000099   405 _SBUF0	=	0x0099
                           00009A   406 G$SPI0CFG$0$0 == 0x009a
                           00009A   407 _SPI0CFG	=	0x009a
                           00009B   408 G$SPI0DAT$0$0 == 0x009b
                           00009B   409 _SPI0DAT	=	0x009b
                           00009C   410 G$ADC1$0$0 == 0x009c
                           00009C   411 _ADC1	=	0x009c
                           00009D   412 G$SPI0CKR$0$0 == 0x009d
                           00009D   413 _SPI0CKR	=	0x009d
                           00009E   414 G$CPT0CN$0$0 == 0x009e
                           00009E   415 _CPT0CN	=	0x009e
                           00009F   416 G$CPT1CN$0$0 == 0x009f
                           00009F   417 _CPT1CN	=	0x009f
                           0000A0   418 G$P2$0$0 == 0x00a0
                           0000A0   419 _P2	=	0x00a0
                           0000A1   420 G$EMI0TC$0$0 == 0x00a1
                           0000A1   421 _EMI0TC	=	0x00a1
                           0000A3   422 G$EMI0CF$0$0 == 0x00a3
                           0000A3   423 _EMI0CF	=	0x00a3
                           0000A4   424 G$PRT0CF$0$0 == 0x00a4
                           0000A4   425 _PRT0CF	=	0x00a4
                           0000A4   426 G$P0MDOUT$0$0 == 0x00a4
                           0000A4   427 _P0MDOUT	=	0x00a4
                           0000A5   428 G$PRT1CF$0$0 == 0x00a5
                           0000A5   429 _PRT1CF	=	0x00a5
                           0000A5   430 G$P1MDOUT$0$0 == 0x00a5
                           0000A5   431 _P1MDOUT	=	0x00a5
                           0000A6   432 G$PRT2CF$0$0 == 0x00a6
                           0000A6   433 _PRT2CF	=	0x00a6
                           0000A6   434 G$P2MDOUT$0$0 == 0x00a6
                           0000A6   435 _P2MDOUT	=	0x00a6
                           0000A7   436 G$PRT3CF$0$0 == 0x00a7
                           0000A7   437 _PRT3CF	=	0x00a7
                           0000A7   438 G$P3MDOUT$0$0 == 0x00a7
                           0000A7   439 _P3MDOUT	=	0x00a7
                           0000A8   440 G$IE$0$0 == 0x00a8
                           0000A8   441 _IE	=	0x00a8
                           0000A9   442 G$SADDR0$0$0 == 0x00a9
                           0000A9   443 _SADDR0	=	0x00a9
                           0000AA   444 G$ADC1CN$0$0 == 0x00aa
                           0000AA   445 _ADC1CN	=	0x00aa
                           0000AB   446 G$ADC1CF$0$0 == 0x00ab
                           0000AB   447 _ADC1CF	=	0x00ab
                           0000AC   448 G$AMX1SL$0$0 == 0x00ac
                           0000AC   449 _AMX1SL	=	0x00ac
                           0000AD   450 G$P3IF$0$0 == 0x00ad
                           0000AD   451 _P3IF	=	0x00ad
                           0000AE   452 G$SADEN1$0$0 == 0x00ae
                           0000AE   453 _SADEN1	=	0x00ae
                           0000AF   454 G$EMI0CN$0$0 == 0x00af
                           0000AF   455 _EMI0CN	=	0x00af
                           0000AF   456 G$_XPAGE$0$0 == 0x00af
                           0000AF   457 __XPAGE	=	0x00af
                           0000B0   458 G$P3$0$0 == 0x00b0
                           0000B0   459 _P3	=	0x00b0
                           0000B1   460 G$OSCXCN$0$0 == 0x00b1
                           0000B1   461 _OSCXCN	=	0x00b1
                           0000B2   462 G$OSCICN$0$0 == 0x00b2
                           0000B2   463 _OSCICN	=	0x00b2
                           0000B5   464 G$P74OUT$0$0 == 0x00b5
                           0000B5   465 _P74OUT	=	0x00b5
                           0000B6   466 G$FLSCL$0$0 == 0x00b6
                           0000B6   467 _FLSCL	=	0x00b6
                           0000B7   468 G$FLACL$0$0 == 0x00b7
                           0000B7   469 _FLACL	=	0x00b7
                           0000B8   470 G$IP$0$0 == 0x00b8
                           0000B8   471 _IP	=	0x00b8
                           0000B9   472 G$SADEN0$0$0 == 0x00b9
                           0000B9   473 _SADEN0	=	0x00b9
                           0000BA   474 G$AMX0CF$0$0 == 0x00ba
                           0000BA   475 _AMX0CF	=	0x00ba
                           0000BB   476 G$AMX0SL$0$0 == 0x00bb
                           0000BB   477 _AMX0SL	=	0x00bb
                           0000BC   478 G$ADC0CF$0$0 == 0x00bc
                           0000BC   479 _ADC0CF	=	0x00bc
                           0000BD   480 G$P1MDIN$0$0 == 0x00bd
                           0000BD   481 _P1MDIN	=	0x00bd
                           0000BE   482 G$ADC0L$0$0 == 0x00be
                           0000BE   483 _ADC0L	=	0x00be
                           0000BF   484 G$ADC0H$0$0 == 0x00bf
                           0000BF   485 _ADC0H	=	0x00bf
                           0000C0   486 G$SMB0CN$0$0 == 0x00c0
                           0000C0   487 _SMB0CN	=	0x00c0
                           0000C1   488 G$SMB0STA$0$0 == 0x00c1
                           0000C1   489 _SMB0STA	=	0x00c1
                           0000C2   490 G$SMB0DAT$0$0 == 0x00c2
                           0000C2   491 _SMB0DAT	=	0x00c2
                           0000C3   492 G$SMB0ADR$0$0 == 0x00c3
                           0000C3   493 _SMB0ADR	=	0x00c3
                           0000C4   494 G$ADC0GTL$0$0 == 0x00c4
                           0000C4   495 _ADC0GTL	=	0x00c4
                           0000C5   496 G$ADC0GTH$0$0 == 0x00c5
                           0000C5   497 _ADC0GTH	=	0x00c5
                           0000C6   498 G$ADC0LTL$0$0 == 0x00c6
                           0000C6   499 _ADC0LTL	=	0x00c6
                           0000C7   500 G$ADC0LTH$0$0 == 0x00c7
                           0000C7   501 _ADC0LTH	=	0x00c7
                           0000C8   502 G$T2CON$0$0 == 0x00c8
                           0000C8   503 _T2CON	=	0x00c8
                           0000C9   504 G$T4CON$0$0 == 0x00c9
                           0000C9   505 _T4CON	=	0x00c9
                           0000CA   506 G$RCAP2L$0$0 == 0x00ca
                           0000CA   507 _RCAP2L	=	0x00ca
                           0000CB   508 G$RCAP2H$0$0 == 0x00cb
                           0000CB   509 _RCAP2H	=	0x00cb
                           0000CC   510 G$TL2$0$0 == 0x00cc
                           0000CC   511 _TL2	=	0x00cc
                           0000CD   512 G$TH2$0$0 == 0x00cd
                           0000CD   513 _TH2	=	0x00cd
                           0000CF   514 G$SMB0CR$0$0 == 0x00cf
                           0000CF   515 _SMB0CR	=	0x00cf
                           0000D0   516 G$PSW$0$0 == 0x00d0
                           0000D0   517 _PSW	=	0x00d0
                           0000D1   518 G$REF0CN$0$0 == 0x00d1
                           0000D1   519 _REF0CN	=	0x00d1
                           0000D2   520 G$DAC0L$0$0 == 0x00d2
                           0000D2   521 _DAC0L	=	0x00d2
                           0000D3   522 G$DAC0H$0$0 == 0x00d3
                           0000D3   523 _DAC0H	=	0x00d3
                           0000D4   524 G$DAC0CN$0$0 == 0x00d4
                           0000D4   525 _DAC0CN	=	0x00d4
                           0000D5   526 G$DAC1L$0$0 == 0x00d5
                           0000D5   527 _DAC1L	=	0x00d5
                           0000D6   528 G$DAC1H$0$0 == 0x00d6
                           0000D6   529 _DAC1H	=	0x00d6
                           0000D7   530 G$DAC1CN$0$0 == 0x00d7
                           0000D7   531 _DAC1CN	=	0x00d7
                           0000D8   532 G$PCA0CN$0$0 == 0x00d8
                           0000D8   533 _PCA0CN	=	0x00d8
                           0000D9   534 G$PCA0MD$0$0 == 0x00d9
                           0000D9   535 _PCA0MD	=	0x00d9
                           0000DA   536 G$PCA0CPM0$0$0 == 0x00da
                           0000DA   537 _PCA0CPM0	=	0x00da
                           0000DB   538 G$PCA0CPM1$0$0 == 0x00db
                           0000DB   539 _PCA0CPM1	=	0x00db
                           0000DC   540 G$PCA0CPM2$0$0 == 0x00dc
                           0000DC   541 _PCA0CPM2	=	0x00dc
                           0000DD   542 G$PCA0CPM3$0$0 == 0x00dd
                           0000DD   543 _PCA0CPM3	=	0x00dd
                           0000DE   544 G$PCA0CPM4$0$0 == 0x00de
                           0000DE   545 _PCA0CPM4	=	0x00de
                           0000E0   546 G$ACC$0$0 == 0x00e0
                           0000E0   547 _ACC	=	0x00e0
                           0000E1   548 G$XBR0$0$0 == 0x00e1
                           0000E1   549 _XBR0	=	0x00e1
                           0000E2   550 G$XBR1$0$0 == 0x00e2
                           0000E2   551 _XBR1	=	0x00e2
                           0000E3   552 G$XBR2$0$0 == 0x00e3
                           0000E3   553 _XBR2	=	0x00e3
                           0000E4   554 G$RCAP4L$0$0 == 0x00e4
                           0000E4   555 _RCAP4L	=	0x00e4
                           0000E5   556 G$RCAP4H$0$0 == 0x00e5
                           0000E5   557 _RCAP4H	=	0x00e5
                           0000E6   558 G$EIE1$0$0 == 0x00e6
                           0000E6   559 _EIE1	=	0x00e6
                           0000E7   560 G$EIE2$0$0 == 0x00e7
                           0000E7   561 _EIE2	=	0x00e7
                           0000E8   562 G$ADC0CN$0$0 == 0x00e8
                           0000E8   563 _ADC0CN	=	0x00e8
                           0000E9   564 G$PCA0L$0$0 == 0x00e9
                           0000E9   565 _PCA0L	=	0x00e9
                           0000EA   566 G$PCA0CPL0$0$0 == 0x00ea
                           0000EA   567 _PCA0CPL0	=	0x00ea
                           0000EB   568 G$PCA0CPL1$0$0 == 0x00eb
                           0000EB   569 _PCA0CPL1	=	0x00eb
                           0000EC   570 G$PCA0CPL2$0$0 == 0x00ec
                           0000EC   571 _PCA0CPL2	=	0x00ec
                           0000ED   572 G$PCA0CPL3$0$0 == 0x00ed
                           0000ED   573 _PCA0CPL3	=	0x00ed
                           0000EE   574 G$PCA0CPL4$0$0 == 0x00ee
                           0000EE   575 _PCA0CPL4	=	0x00ee
                           0000EF   576 G$RSTSRC$0$0 == 0x00ef
                           0000EF   577 _RSTSRC	=	0x00ef
                           0000F0   578 G$B$0$0 == 0x00f0
                           0000F0   579 _B	=	0x00f0
                           0000F1   580 G$SCON1$0$0 == 0x00f1
                           0000F1   581 _SCON1	=	0x00f1
                           0000F2   582 G$SBUF1$0$0 == 0x00f2
                           0000F2   583 _SBUF1	=	0x00f2
                           0000F3   584 G$SADDR1$0$0 == 0x00f3
                           0000F3   585 _SADDR1	=	0x00f3
                           0000F4   586 G$TL4$0$0 == 0x00f4
                           0000F4   587 _TL4	=	0x00f4
                           0000F5   588 G$TH4$0$0 == 0x00f5
                           0000F5   589 _TH4	=	0x00f5
                           0000F6   590 G$EIP1$0$0 == 0x00f6
                           0000F6   591 _EIP1	=	0x00f6
                           0000F7   592 G$EIP2$0$0 == 0x00f7
                           0000F7   593 _EIP2	=	0x00f7
                           0000F8   594 G$SPI0CN$0$0 == 0x00f8
                           0000F8   595 _SPI0CN	=	0x00f8
                           0000F9   596 G$PCA0H$0$0 == 0x00f9
                           0000F9   597 _PCA0H	=	0x00f9
                           0000FA   598 G$PCA0CPH0$0$0 == 0x00fa
                           0000FA   599 _PCA0CPH0	=	0x00fa
                           0000FB   600 G$PCA0CPH1$0$0 == 0x00fb
                           0000FB   601 _PCA0CPH1	=	0x00fb
                           0000FC   602 G$PCA0CPH2$0$0 == 0x00fc
                           0000FC   603 _PCA0CPH2	=	0x00fc
                           0000FD   604 G$PCA0CPH3$0$0 == 0x00fd
                           0000FD   605 _PCA0CPH3	=	0x00fd
                           0000FE   606 G$PCA0CPH4$0$0 == 0x00fe
                           0000FE   607 _PCA0CPH4	=	0x00fe
                           0000FF   608 G$WDTCN$0$0 == 0x00ff
                           0000FF   609 _WDTCN	=	0x00ff
                           008C8A   610 G$TMR0$0$0 == 0x8c8a
                           008C8A   611 _TMR0	=	0x8c8a
                           008D8B   612 G$TMR1$0$0 == 0x8d8b
                           008D8B   613 _TMR1	=	0x8d8b
                           00CDCC   614 G$TMR2$0$0 == 0xcdcc
                           00CDCC   615 _TMR2	=	0xcdcc
                           00CBCA   616 G$RCAP2$0$0 == 0xcbca
                           00CBCA   617 _RCAP2	=	0xcbca
                           009594   618 G$TMR3$0$0 == 0x9594
                           009594   619 _TMR3	=	0x9594
                           009392   620 G$TMR3RL$0$0 == 0x9392
                           009392   621 _TMR3RL	=	0x9392
                           00F5F4   622 G$TMR4$0$0 == 0xf5f4
                           00F5F4   623 _TMR4	=	0xf5f4
                           00E5E4   624 G$RCAP4$0$0 == 0xe5e4
                           00E5E4   625 _RCAP4	=	0xe5e4
                           00BFBE   626 G$ADC0$0$0 == 0xbfbe
                           00BFBE   627 _ADC0	=	0xbfbe
                           00C5C4   628 G$ADC0GT$0$0 == 0xc5c4
                           00C5C4   629 _ADC0GT	=	0xc5c4
                           00C7C6   630 G$ADC0LT$0$0 == 0xc7c6
                           00C7C6   631 _ADC0LT	=	0xc7c6
                           00D3D2   632 G$DAC0$0$0 == 0xd3d2
                           00D3D2   633 _DAC0	=	0xd3d2
                           00D6D5   634 G$DAC1$0$0 == 0xd6d5
                           00D6D5   635 _DAC1	=	0xd6d5
                           00F9E9   636 G$PCA0$0$0 == 0xf9e9
                           00F9E9   637 _PCA0	=	0xf9e9
                           00FAEA   638 G$PCA0CP0$0$0 == 0xfaea
                           00FAEA   639 _PCA0CP0	=	0xfaea
                           00FBEB   640 G$PCA0CP1$0$0 == 0xfbeb
                           00FBEB   641 _PCA0CP1	=	0xfbeb
                           00FCEC   642 G$PCA0CP2$0$0 == 0xfcec
                           00FCEC   643 _PCA0CP2	=	0xfcec
                           00FDED   644 G$PCA0CP3$0$0 == 0xfded
                           00FDED   645 _PCA0CP3	=	0xfded
                           00FEEE   646 G$PCA0CP4$0$0 == 0xfeee
                           00FEEE   647 _PCA0CP4	=	0xfeee
                                    648 ;--------------------------------------------------------
                                    649 ; special function bits
                                    650 ;--------------------------------------------------------
                                    651 	.area RSEG    (ABS,DATA)
      000000                        652 	.org 0x0000
                           000080   653 G$P0_0$0$0 == 0x0080
                           000080   654 _P0_0	=	0x0080
                           000081   655 G$P0_1$0$0 == 0x0081
                           000081   656 _P0_1	=	0x0081
                           000082   657 G$P0_2$0$0 == 0x0082
                           000082   658 _P0_2	=	0x0082
                           000083   659 G$P0_3$0$0 == 0x0083
                           000083   660 _P0_3	=	0x0083
                           000084   661 G$P0_4$0$0 == 0x0084
                           000084   662 _P0_4	=	0x0084
                           000085   663 G$P0_5$0$0 == 0x0085
                           000085   664 _P0_5	=	0x0085
                           000086   665 G$P0_6$0$0 == 0x0086
                           000086   666 _P0_6	=	0x0086
                           000087   667 G$P0_7$0$0 == 0x0087
                           000087   668 _P0_7	=	0x0087
                           000088   669 G$IT0$0$0 == 0x0088
                           000088   670 _IT0	=	0x0088
                           000089   671 G$IE0$0$0 == 0x0089
                           000089   672 _IE0	=	0x0089
                           00008A   673 G$IT1$0$0 == 0x008a
                           00008A   674 _IT1	=	0x008a
                           00008B   675 G$IE1$0$0 == 0x008b
                           00008B   676 _IE1	=	0x008b
                           00008C   677 G$TR0$0$0 == 0x008c
                           00008C   678 _TR0	=	0x008c
                           00008D   679 G$TF0$0$0 == 0x008d
                           00008D   680 _TF0	=	0x008d
                           00008E   681 G$TR1$0$0 == 0x008e
                           00008E   682 _TR1	=	0x008e
                           00008F   683 G$TF1$0$0 == 0x008f
                           00008F   684 _TF1	=	0x008f
                           000090   685 G$P1_0$0$0 == 0x0090
                           000090   686 _P1_0	=	0x0090
                           000091   687 G$P1_1$0$0 == 0x0091
                           000091   688 _P1_1	=	0x0091
                           000092   689 G$P1_2$0$0 == 0x0092
                           000092   690 _P1_2	=	0x0092
                           000093   691 G$P1_3$0$0 == 0x0093
                           000093   692 _P1_3	=	0x0093
                           000094   693 G$P1_4$0$0 == 0x0094
                           000094   694 _P1_4	=	0x0094
                           000095   695 G$P1_5$0$0 == 0x0095
                           000095   696 _P1_5	=	0x0095
                           000096   697 G$P1_6$0$0 == 0x0096
                           000096   698 _P1_6	=	0x0096
                           000097   699 G$P1_7$0$0 == 0x0097
                           000097   700 _P1_7	=	0x0097
                           000098   701 G$RI$0$0 == 0x0098
                           000098   702 _RI	=	0x0098
                           000098   703 G$RI0$0$0 == 0x0098
                           000098   704 _RI0	=	0x0098
                           000099   705 G$TI$0$0 == 0x0099
                           000099   706 _TI	=	0x0099
                           000099   707 G$TI0$0$0 == 0x0099
                           000099   708 _TI0	=	0x0099
                           00009A   709 G$RB8$0$0 == 0x009a
                           00009A   710 _RB8	=	0x009a
                           00009A   711 G$RB80$0$0 == 0x009a
                           00009A   712 _RB80	=	0x009a
                           00009B   713 G$TB8$0$0 == 0x009b
                           00009B   714 _TB8	=	0x009b
                           00009B   715 G$TB80$0$0 == 0x009b
                           00009B   716 _TB80	=	0x009b
                           00009C   717 G$REN$0$0 == 0x009c
                           00009C   718 _REN	=	0x009c
                           00009C   719 G$REN0$0$0 == 0x009c
                           00009C   720 _REN0	=	0x009c
                           00009D   721 G$SM2$0$0 == 0x009d
                           00009D   722 _SM2	=	0x009d
                           00009D   723 G$SM20$0$0 == 0x009d
                           00009D   724 _SM20	=	0x009d
                           00009D   725 G$MCE0$0$0 == 0x009d
                           00009D   726 _MCE0	=	0x009d
                           00009E   727 G$SM1$0$0 == 0x009e
                           00009E   728 _SM1	=	0x009e
                           00009E   729 G$SM10$0$0 == 0x009e
                           00009E   730 _SM10	=	0x009e
                           00009F   731 G$SM0$0$0 == 0x009f
                           00009F   732 _SM0	=	0x009f
                           00009F   733 G$SM00$0$0 == 0x009f
                           00009F   734 _SM00	=	0x009f
                           00009F   735 G$S0MODE$0$0 == 0x009f
                           00009F   736 _S0MODE	=	0x009f
                           0000A0   737 G$P2_0$0$0 == 0x00a0
                           0000A0   738 _P2_0	=	0x00a0
                           0000A1   739 G$P2_1$0$0 == 0x00a1
                           0000A1   740 _P2_1	=	0x00a1
                           0000A2   741 G$P2_2$0$0 == 0x00a2
                           0000A2   742 _P2_2	=	0x00a2
                           0000A3   743 G$P2_3$0$0 == 0x00a3
                           0000A3   744 _P2_3	=	0x00a3
                           0000A4   745 G$P2_4$0$0 == 0x00a4
                           0000A4   746 _P2_4	=	0x00a4
                           0000A5   747 G$P2_5$0$0 == 0x00a5
                           0000A5   748 _P2_5	=	0x00a5
                           0000A6   749 G$P2_6$0$0 == 0x00a6
                           0000A6   750 _P2_6	=	0x00a6
                           0000A7   751 G$P2_7$0$0 == 0x00a7
                           0000A7   752 _P2_7	=	0x00a7
                           0000A8   753 G$EX0$0$0 == 0x00a8
                           0000A8   754 _EX0	=	0x00a8
                           0000A9   755 G$ET0$0$0 == 0x00a9
                           0000A9   756 _ET0	=	0x00a9
                           0000AA   757 G$EX1$0$0 == 0x00aa
                           0000AA   758 _EX1	=	0x00aa
                           0000AB   759 G$ET1$0$0 == 0x00ab
                           0000AB   760 _ET1	=	0x00ab
                           0000AC   761 G$ES0$0$0 == 0x00ac
                           0000AC   762 _ES0	=	0x00ac
                           0000AC   763 G$ES$0$0 == 0x00ac
                           0000AC   764 _ES	=	0x00ac
                           0000AD   765 G$ET2$0$0 == 0x00ad
                           0000AD   766 _ET2	=	0x00ad
                           0000AF   767 G$EA$0$0 == 0x00af
                           0000AF   768 _EA	=	0x00af
                           0000B0   769 G$P3_0$0$0 == 0x00b0
                           0000B0   770 _P3_0	=	0x00b0
                           0000B1   771 G$P3_1$0$0 == 0x00b1
                           0000B1   772 _P3_1	=	0x00b1
                           0000B2   773 G$P3_2$0$0 == 0x00b2
                           0000B2   774 _P3_2	=	0x00b2
                           0000B3   775 G$P3_3$0$0 == 0x00b3
                           0000B3   776 _P3_3	=	0x00b3
                           0000B4   777 G$P3_4$0$0 == 0x00b4
                           0000B4   778 _P3_4	=	0x00b4
                           0000B5   779 G$P3_5$0$0 == 0x00b5
                           0000B5   780 _P3_5	=	0x00b5
                           0000B6   781 G$P3_6$0$0 == 0x00b6
                           0000B6   782 _P3_6	=	0x00b6
                           0000B7   783 G$P3_7$0$0 == 0x00b7
                           0000B7   784 _P3_7	=	0x00b7
                           0000B8   785 G$PX0$0$0 == 0x00b8
                           0000B8   786 _PX0	=	0x00b8
                           0000B9   787 G$PT0$0$0 == 0x00b9
                           0000B9   788 _PT0	=	0x00b9
                           0000BA   789 G$PX1$0$0 == 0x00ba
                           0000BA   790 _PX1	=	0x00ba
                           0000BB   791 G$PT1$0$0 == 0x00bb
                           0000BB   792 _PT1	=	0x00bb
                           0000BC   793 G$PS0$0$0 == 0x00bc
                           0000BC   794 _PS0	=	0x00bc
                           0000BC   795 G$PS$0$0 == 0x00bc
                           0000BC   796 _PS	=	0x00bc
                           0000BD   797 G$PT2$0$0 == 0x00bd
                           0000BD   798 _PT2	=	0x00bd
                           0000C0   799 G$SMBTOE$0$0 == 0x00c0
                           0000C0   800 _SMBTOE	=	0x00c0
                           0000C1   801 G$SMBFTE$0$0 == 0x00c1
                           0000C1   802 _SMBFTE	=	0x00c1
                           0000C2   803 G$AA$0$0 == 0x00c2
                           0000C2   804 _AA	=	0x00c2
                           0000C3   805 G$SI$0$0 == 0x00c3
                           0000C3   806 _SI	=	0x00c3
                           0000C4   807 G$STO$0$0 == 0x00c4
                           0000C4   808 _STO	=	0x00c4
                           0000C5   809 G$STA$0$0 == 0x00c5
                           0000C5   810 _STA	=	0x00c5
                           0000C6   811 G$ENSMB$0$0 == 0x00c6
                           0000C6   812 _ENSMB	=	0x00c6
                           0000C7   813 G$BUSY$0$0 == 0x00c7
                           0000C7   814 _BUSY	=	0x00c7
                           0000C8   815 G$CPRL2$0$0 == 0x00c8
                           0000C8   816 _CPRL2	=	0x00c8
                           0000C9   817 G$CT2$0$0 == 0x00c9
                           0000C9   818 _CT2	=	0x00c9
                           0000CA   819 G$TR2$0$0 == 0x00ca
                           0000CA   820 _TR2	=	0x00ca
                           0000CB   821 G$EXEN2$0$0 == 0x00cb
                           0000CB   822 _EXEN2	=	0x00cb
                           0000CC   823 G$TCLK$0$0 == 0x00cc
                           0000CC   824 _TCLK	=	0x00cc
                           0000CD   825 G$RCLK$0$0 == 0x00cd
                           0000CD   826 _RCLK	=	0x00cd
                           0000CE   827 G$EXF2$0$0 == 0x00ce
                           0000CE   828 _EXF2	=	0x00ce
                           0000CF   829 G$TF2$0$0 == 0x00cf
                           0000CF   830 _TF2	=	0x00cf
                           0000D0   831 G$P$0$0 == 0x00d0
                           0000D0   832 _P	=	0x00d0
                           0000D1   833 G$F1$0$0 == 0x00d1
                           0000D1   834 _F1	=	0x00d1
                           0000D2   835 G$OV$0$0 == 0x00d2
                           0000D2   836 _OV	=	0x00d2
                           0000D3   837 G$RS0$0$0 == 0x00d3
                           0000D3   838 _RS0	=	0x00d3
                           0000D4   839 G$RS1$0$0 == 0x00d4
                           0000D4   840 _RS1	=	0x00d4
                           0000D5   841 G$F0$0$0 == 0x00d5
                           0000D5   842 _F0	=	0x00d5
                           0000D6   843 G$AC$0$0 == 0x00d6
                           0000D6   844 _AC	=	0x00d6
                           0000D7   845 G$CY$0$0 == 0x00d7
                           0000D7   846 _CY	=	0x00d7
                           0000D8   847 G$CCF0$0$0 == 0x00d8
                           0000D8   848 _CCF0	=	0x00d8
                           0000D9   849 G$CCF1$0$0 == 0x00d9
                           0000D9   850 _CCF1	=	0x00d9
                           0000DA   851 G$CCF2$0$0 == 0x00da
                           0000DA   852 _CCF2	=	0x00da
                           0000DB   853 G$CCF3$0$0 == 0x00db
                           0000DB   854 _CCF3	=	0x00db
                           0000DC   855 G$CCF4$0$0 == 0x00dc
                           0000DC   856 _CCF4	=	0x00dc
                           0000DE   857 G$CR$0$0 == 0x00de
                           0000DE   858 _CR	=	0x00de
                           0000DF   859 G$CF$0$0 == 0x00df
                           0000DF   860 _CF	=	0x00df
                           0000E8   861 G$ADLJST$0$0 == 0x00e8
                           0000E8   862 _ADLJST	=	0x00e8
                           0000E8   863 G$AD0LJST$0$0 == 0x00e8
                           0000E8   864 _AD0LJST	=	0x00e8
                           0000E9   865 G$ADWINT$0$0 == 0x00e9
                           0000E9   866 _ADWINT	=	0x00e9
                           0000E9   867 G$AD0WINT$0$0 == 0x00e9
                           0000E9   868 _AD0WINT	=	0x00e9
                           0000EA   869 G$ADSTM0$0$0 == 0x00ea
                           0000EA   870 _ADSTM0	=	0x00ea
                           0000EA   871 G$AD0CM0$0$0 == 0x00ea
                           0000EA   872 _AD0CM0	=	0x00ea
                           0000EB   873 G$ADSTM1$0$0 == 0x00eb
                           0000EB   874 _ADSTM1	=	0x00eb
                           0000EB   875 G$AD0CM1$0$0 == 0x00eb
                           0000EB   876 _AD0CM1	=	0x00eb
                           0000EC   877 G$ADBUSY$0$0 == 0x00ec
                           0000EC   878 _ADBUSY	=	0x00ec
                           0000EC   879 G$AD0BUSY$0$0 == 0x00ec
                           0000EC   880 _AD0BUSY	=	0x00ec
                           0000ED   881 G$ADCINT$0$0 == 0x00ed
                           0000ED   882 _ADCINT	=	0x00ed
                           0000ED   883 G$AD0INT$0$0 == 0x00ed
                           0000ED   884 _AD0INT	=	0x00ed
                           0000EE   885 G$ADCTM$0$0 == 0x00ee
                           0000EE   886 _ADCTM	=	0x00ee
                           0000EE   887 G$AD0TM$0$0 == 0x00ee
                           0000EE   888 _AD0TM	=	0x00ee
                           0000EF   889 G$ADCEN$0$0 == 0x00ef
                           0000EF   890 _ADCEN	=	0x00ef
                           0000EF   891 G$AD0EN$0$0 == 0x00ef
                           0000EF   892 _AD0EN	=	0x00ef
                           0000F8   893 G$SPIEN$0$0 == 0x00f8
                           0000F8   894 _SPIEN	=	0x00f8
                           0000F9   895 G$MSTEN$0$0 == 0x00f9
                           0000F9   896 _MSTEN	=	0x00f9
                           0000FA   897 G$SLVSEL$0$0 == 0x00fa
                           0000FA   898 _SLVSEL	=	0x00fa
                           0000FB   899 G$TXBSY$0$0 == 0x00fb
                           0000FB   900 _TXBSY	=	0x00fb
                           0000FC   901 G$RXOVRN$0$0 == 0x00fc
                           0000FC   902 _RXOVRN	=	0x00fc
                           0000FD   903 G$MODF$0$0 == 0x00fd
                           0000FD   904 _MODF	=	0x00fd
                           0000FE   905 G$WCOL$0$0 == 0x00fe
                           0000FE   906 _WCOL	=	0x00fe
                           0000FF   907 G$SPIF$0$0 == 0x00ff
                           0000FF   908 _SPIF	=	0x00ff
                           0000B7   909 G$BILED1$0$0 == 0x00b7
                           0000B7   910 _BILED1	=	0x00b7
                           0000A1   911 G$BILED2$0$0 == 0x00a1
                           0000A1   912 _BILED2	=	0x00a1
                           0000B2   913 G$PB0$0$0 == 0x00b2
                           0000B2   914 _PB0	=	0x00b2
                           0000B3   915 G$PB2$0$0 == 0x00b3
                           0000B3   916 _PB2	=	0x00b3
                           0000B4   917 G$PB1$0$0 == 0x00b4
                           0000B4   918 _PB1	=	0x00b4
                           0000B5   919 G$PB3$0$0 == 0x00b5
                           0000B5   920 _PB3	=	0x00b5
                           0000A0   921 G$LED0$0$0 == 0x00a0
                           0000A0   922 _LED0	=	0x00a0
                           0000A2   923 G$LED1$0$0 == 0x00a2
                           0000A2   924 _LED1	=	0x00a2
                           0000A3   925 G$LED2$0$0 == 0x00a3
                           0000A3   926 _LED2	=	0x00a3
                           0000A5   927 G$LED3$0$0 == 0x00a5
                           0000A5   928 _LED3	=	0x00a5
                           0000B6   929 G$BUZZER$0$0 == 0x00b6
                           0000B6   930 _BUZZER	=	0x00b6
                           0000B1   931 G$SS0$0$0 == 0x00b1
                           0000B1   932 _SS0	=	0x00b1
                           0000B0   933 G$SS1$0$0 == 0x00b0
                           0000B0   934 _SS1	=	0x00b0
                                    935 ;--------------------------------------------------------
                                    936 ; overlayable register banks
                                    937 ;--------------------------------------------------------
                                    938 	.area REG_BANK_0	(REL,OVR,DATA)
      000000                        939 	.ds 8
                                    940 ;--------------------------------------------------------
                                    941 ; internal ram data
                                    942 ;--------------------------------------------------------
                                    943 	.area DSEG    (DATA)
                           000000   944 G$Counts$0$0==.
      000000                        945 _Counts::
      000000                        946 	.ds 2
                           000002   947 G$score$0$0==.
      000002                        948 _score::
      000002                        949 	.ds 2
                           000004   950 G$input$0$0==.
      000004                        951 _input::
      000004                        952 	.ds 1
                           000005   953 G$i$0$0==.
      000005                        954 _i::
      000005                        955 	.ds 1
                           000006   956 G$speed$0$0==.
      000006                        957 _speed::
      000006                        958 	.ds 2
                           000008   959 G$light$0$0==.
      000008                        960 _light::
      000008                        961 	.ds 8
                           000010   962 G$times$0$0==.
      000010                        963 _times::
      000010                        964 	.ds 8
                           000018   965 G$alive$0$0==.
      000018                        966 _alive::
      000018                        967 	.ds 2
                           00001A   968 G$seq$0$0==.
      00001A                        969 _seq::
      00001A                        970 	.ds 1
                           00001B   971 G$rep$0$0==.
      00001B                        972 _rep::
      00001B                        973 	.ds 1
                           00001C   974 G$currLED$0$0==.
      00001C                        975 _currLED::
      00001C                        976 	.ds 1
                           00001D   977 G$adc$0$0==.
      00001D                        978 _adc::
      00001D                        979 	.ds 1
                           00001E   980 G$whichLED$0$0==.
      00001E                        981 _whichLED::
      00001E                        982 	.ds 1
                           00001F   983 G$blink$0$0==.
      00001F                        984 _blink::
      00001F                        985 	.ds 1
                           000020   986 G$ADresult$0$0==.
      000020                        987 _ADresult::
      000020                        988 	.ds 1
                           000021   989 G$blink_rate$0$0==.
      000021                        990 _blink_rate::
      000021                        991 	.ds 2
                           000023   992 G$delay$0$0==.
      000023                        993 _delay::
      000023                        994 	.ds 2
                           000025   995 G$led_on$0$0==.
      000025                        996 _led_on::
      000025                        997 	.ds 1
                           000026   998 G$currCounts$0$0==.
      000026                        999 _currCounts::
      000026                       1000 	.ds 2
                           000028  1001 Llab2_func.aligned_alloc$size$1$39==.
      000028                       1002 _aligned_alloc_PARM_2:
      000028                       1003 	.ds 2
                                   1004 ;--------------------------------------------------------
                                   1005 ; overlayable items in internal ram 
                                   1006 ;--------------------------------------------------------
                                   1007 	.area	OSEG    (OVR,DATA)
                                   1008 	.area	OSEG    (OVR,DATA)
                                   1009 	.area	OSEG    (OVR,DATA)
                                   1010 ;--------------------------------------------------------
                                   1011 ; Stack segment in internal ram 
                                   1012 ;--------------------------------------------------------
                                   1013 	.area	SSEG
      000000                       1014 __start__stack:
      000000                       1015 	.ds	1
                                   1016 
                                   1017 ;--------------------------------------------------------
                                   1018 ; indirectly addressable internal ram data
                                   1019 ;--------------------------------------------------------
                                   1020 	.area ISEG    (DATA)
                                   1021 ;--------------------------------------------------------
                                   1022 ; absolute internal ram data
                                   1023 ;--------------------------------------------------------
                                   1024 	.area IABS    (ABS,DATA)
                                   1025 	.area IABS    (ABS,DATA)
                                   1026 ;--------------------------------------------------------
                                   1027 ; bit data
                                   1028 ;--------------------------------------------------------
                                   1029 	.area BSEG    (BIT)
                                   1030 ;--------------------------------------------------------
                                   1031 ; paged external ram data
                                   1032 ;--------------------------------------------------------
                                   1033 	.area PSEG    (PAG,XDATA)
                                   1034 ;--------------------------------------------------------
                                   1035 ; external ram data
                                   1036 ;--------------------------------------------------------
                                   1037 	.area XSEG    (XDATA)
                                   1038 ;--------------------------------------------------------
                                   1039 ; absolute external ram data
                                   1040 ;--------------------------------------------------------
                                   1041 	.area XABS    (ABS,XDATA)
                                   1042 ;--------------------------------------------------------
                                   1043 ; external initialized ram data
                                   1044 ;--------------------------------------------------------
                                   1045 	.area XISEG   (XDATA)
                                   1046 	.area HOME    (CODE)
                                   1047 	.area GSINIT0 (CODE)
                                   1048 	.area GSINIT1 (CODE)
                                   1049 	.area GSINIT2 (CODE)
                                   1050 	.area GSINIT3 (CODE)
                                   1051 	.area GSINIT4 (CODE)
                                   1052 	.area GSINIT5 (CODE)
                                   1053 	.area GSINIT  (CODE)
                                   1054 	.area GSFINAL (CODE)
                                   1055 	.area CSEG    (CODE)
                                   1056 ;--------------------------------------------------------
                                   1057 ; interrupt vector 
                                   1058 ;--------------------------------------------------------
                                   1059 	.area HOME    (CODE)
      000000                       1060 __interrupt_vect:
      000000 02r00r00         [24] 1061 	ljmp	__sdcc_gsinit_startup
      000003 32               [24] 1062 	reti
      000004                       1063 	.ds	7
      00000B 02r00rE2         [24] 1064 	ljmp	_Timer0_ISR
                                   1065 ;--------------------------------------------------------
                                   1066 ; global & static initialisations
                                   1067 ;--------------------------------------------------------
                                   1068 	.area HOME    (CODE)
                                   1069 	.area GSINIT  (CODE)
                                   1070 	.area GSFINAL (CODE)
                                   1071 	.area GSINIT  (CODE)
                                   1072 	.globl __sdcc_gsinit_startup
                                   1073 	.globl __sdcc_program_startup
                                   1074 	.globl __start__stack
                                   1075 	.globl __mcs51_genXINIT
                                   1076 	.globl __mcs51_genXRAMCLEAR
                                   1077 	.globl __mcs51_genRAMCLEAR
                           000000  1078 	C$lab2_func.c$55$1$139 ==.
                                   1079 ;	C:\Users\Tim\Documents\LITEC\Lab2\lab2-func.c:55: unsigned int Counts = 0;
      000000 E4               [12] 1080 	clr	a
      000001 F5*00            [12] 1081 	mov	_Counts,a
      000003 F5*01            [12] 1082 	mov	(_Counts + 1),a
                           000005  1083 	C$lab2_func.c$56$1$139 ==.
                                   1084 ;	C:\Users\Tim\Documents\LITEC\Lab2\lab2-func.c:56: unsigned int score = 0;
      000005 F5*02            [12] 1085 	mov	_score,a
      000007 F5*03            [12] 1086 	mov	(_score + 1),a
                           000009  1087 	C$lab2_func.c$59$1$139 ==.
                                   1088 ;	C:\Users\Tim\Documents\LITEC\Lab2\lab2-func.c:59: unsigned int speed = 337*1.3;//as timer0 is a 16-bit SYSCLK, default speed is set to 1 second.
      000009 75*06 B6         [24] 1089 	mov	_speed,#0xb6
      00000C 75*07 01         [24] 1090 	mov	(_speed + 1),#0x01
                           00000F  1091 	C$lab2_func.c$64$1$139 ==.
                                   1092 ;	C:\Users\Tim\Documents\LITEC\Lab2\lab2-func.c:64: unsigned int alive = 1;
      00000F 75*18 01         [24] 1093 	mov	_alive,#0x01
                                   1094 ;	1-genFromRTrack replaced	mov	(_alive + 1),#0x00
      000012 F5*19            [12] 1095 	mov	(_alive + 1),a
                           000014  1096 	C$lab2_func.c$67$1$139 ==.
                                   1097 ;	C:\Users\Tim\Documents\LITEC\Lab2\lab2-func.c:67: unsigned char currLED = 4;
      000014 75*1C 04         [24] 1098 	mov	_currLED,#0x04
                                   1099 	.area GSFINAL (CODE)
      000000 02r00r0E         [24] 1100 	ljmp	__sdcc_program_startup
                                   1101 ;--------------------------------------------------------
                                   1102 ; Home
                                   1103 ;--------------------------------------------------------
                                   1104 	.area HOME    (CODE)
                                   1105 	.area HOME    (CODE)
      00000E                       1106 __sdcc_program_startup:
      00000E 02r00r7B         [24] 1107 	ljmp	_main
                                   1108 ;	return from main will return to caller
                                   1109 ;--------------------------------------------------------
                                   1110 ; code
                                   1111 ;--------------------------------------------------------
                                   1112 	.area CSEG    (CODE)
                                   1113 ;------------------------------------------------------------
                                   1114 ;Allocation info for local variables in function 'SYSCLK_Init'
                                   1115 ;------------------------------------------------------------
                                   1116 ;i                         Allocated to registers r6 r7 
                                   1117 ;------------------------------------------------------------
                           000000  1118 	G$SYSCLK_Init$0$0 ==.
                           000000  1119 	C$c8051_SDCC.h$62$0$0 ==.
                                   1120 ;	C:/Program Files/SDCC/bin/../include/mcs51/c8051_SDCC.h:62: void SYSCLK_Init(void)
                                   1121 ;	-----------------------------------------
                                   1122 ;	 function SYSCLK_Init
                                   1123 ;	-----------------------------------------
      000000                       1124 _SYSCLK_Init:
                           000007  1125 	ar7 = 0x07
                           000006  1126 	ar6 = 0x06
                           000005  1127 	ar5 = 0x05
                           000004  1128 	ar4 = 0x04
                           000003  1129 	ar3 = 0x03
                           000002  1130 	ar2 = 0x02
                           000001  1131 	ar1 = 0x01
                           000000  1132 	ar0 = 0x00
                           000000  1133 	C$c8051_SDCC.h$66$1$2 ==.
                                   1134 ;	C:/Program Files/SDCC/bin/../include/mcs51/c8051_SDCC.h:66: OSCXCN = 0x67;                      // start external oscillator with
      000000 75 B1 67         [24] 1135 	mov	_OSCXCN,#0x67
                           000003  1136 	C$c8051_SDCC.h$69$1$2 ==.
                                   1137 ;	C:/Program Files/SDCC/bin/../include/mcs51/c8051_SDCC.h:69: for (i=0; i < 256; i++);            // wait for oscillator to start
      000003 7E 00            [12] 1138 	mov	r6,#0x00
      000005 7F 01            [12] 1139 	mov	r7,#0x01
      000007                       1140 00107$:
      000007 EE               [12] 1141 	mov	a,r6
      000008 24 FF            [12] 1142 	add	a,#0xff
      00000A FC               [12] 1143 	mov	r4,a
      00000B EF               [12] 1144 	mov	a,r7
      00000C 34 FF            [12] 1145 	addc	a,#0xff
      00000E FD               [12] 1146 	mov	r5,a
      00000F 8C 06            [24] 1147 	mov	ar6,r4
      000011 8D 07            [24] 1148 	mov	ar7,r5
      000013 EC               [12] 1149 	mov	a,r4
      000014 4D               [12] 1150 	orl	a,r5
      000015 70 F0            [24] 1151 	jnz	00107$
                           000017  1152 	C$c8051_SDCC.h$71$1$2 ==.
                                   1153 ;	C:/Program Files/SDCC/bin/../include/mcs51/c8051_SDCC.h:71: while (!(OSCXCN & 0x80));           // Wait for crystal osc. to settle
      000017                       1154 00102$:
      000017 E5 B1            [12] 1155 	mov	a,_OSCXCN
      000019 30 E7 FB         [24] 1156 	jnb	acc.7,00102$
                           00001C  1157 	C$c8051_SDCC.h$73$1$2 ==.
                                   1158 ;	C:/Program Files/SDCC/bin/../include/mcs51/c8051_SDCC.h:73: OSCICN = 0x88;                      // select external oscillator as SYSCLK
      00001C 75 B2 88         [24] 1159 	mov	_OSCICN,#0x88
                           00001F  1160 	C$c8051_SDCC.h$76$1$2 ==.
                           00001F  1161 	XG$SYSCLK_Init$0$0 ==.
      00001F 22               [24] 1162 	ret
                                   1163 ;------------------------------------------------------------
                                   1164 ;Allocation info for local variables in function 'UART0_Init'
                                   1165 ;------------------------------------------------------------
                           000020  1166 	G$UART0_Init$0$0 ==.
                           000020  1167 	C$c8051_SDCC.h$84$1$2 ==.
                                   1168 ;	C:/Program Files/SDCC/bin/../include/mcs51/c8051_SDCC.h:84: void UART0_Init(void)
                                   1169 ;	-----------------------------------------
                                   1170 ;	 function UART0_Init
                                   1171 ;	-----------------------------------------
      000020                       1172 _UART0_Init:
                           000020  1173 	C$c8051_SDCC.h$86$1$4 ==.
                                   1174 ;	C:/Program Files/SDCC/bin/../include/mcs51/c8051_SDCC.h:86: SCON0  = 0x50;                      // SCON0: mode 1, 8-bit UART, enable RX
      000020 75 98 50         [24] 1175 	mov	_SCON0,#0x50
                           000023  1176 	C$c8051_SDCC.h$87$1$4 ==.
                                   1177 ;	C:/Program Files/SDCC/bin/../include/mcs51/c8051_SDCC.h:87: TMOD   = 0x20;                      // TMOD: timer 1, mode 2, 8-bit reload
      000023 75 89 20         [24] 1178 	mov	_TMOD,#0x20
                           000026  1179 	C$c8051_SDCC.h$88$1$4 ==.
                                   1180 ;	C:/Program Files/SDCC/bin/../include/mcs51/c8051_SDCC.h:88: TH1    = 0xFF&-(SYSCLK/BAUDRATE/16);     // set Timer1 reload value for baudrate
      000026 75 8D DC         [24] 1181 	mov	_TH1,#0xdc
                           000029  1182 	C$c8051_SDCC.h$89$1$4 ==.
                                   1183 ;	C:/Program Files/SDCC/bin/../include/mcs51/c8051_SDCC.h:89: TR1    = 1;                         // start Timer1
      000029 D2 8E            [12] 1184 	setb	_TR1
                           00002B  1185 	C$c8051_SDCC.h$90$1$4 ==.
                                   1186 ;	C:/Program Files/SDCC/bin/../include/mcs51/c8051_SDCC.h:90: CKCON |= 0x10;                      // Timer1 uses SYSCLK as time base
      00002B 43 8E 10         [24] 1187 	orl	_CKCON,#0x10
                           00002E  1188 	C$c8051_SDCC.h$91$1$4 ==.
                                   1189 ;	C:/Program Files/SDCC/bin/../include/mcs51/c8051_SDCC.h:91: PCON  |= 0x80;                      // SMOD00 = 1 (disable baud rate 
      00002E 43 87 80         [24] 1190 	orl	_PCON,#0x80
                           000031  1191 	C$c8051_SDCC.h$93$1$4 ==.
                                   1192 ;	C:/Program Files/SDCC/bin/../include/mcs51/c8051_SDCC.h:93: TI0    = 1;                         // Indicate TX0 ready
      000031 D2 99            [12] 1193 	setb	_TI0
                           000033  1194 	C$c8051_SDCC.h$94$1$4 ==.
                                   1195 ;	C:/Program Files/SDCC/bin/../include/mcs51/c8051_SDCC.h:94: P0MDOUT |= 0x01;                    // Set TX0 to push/pull
      000033 43 A4 01         [24] 1196 	orl	_P0MDOUT,#0x01
                           000036  1197 	C$c8051_SDCC.h$95$1$4 ==.
                           000036  1198 	XG$UART0_Init$0$0 ==.
      000036 22               [24] 1199 	ret
                                   1200 ;------------------------------------------------------------
                                   1201 ;Allocation info for local variables in function 'Sys_Init'
                                   1202 ;------------------------------------------------------------
                           000037  1203 	G$Sys_Init$0$0 ==.
                           000037  1204 	C$c8051_SDCC.h$103$1$4 ==.
                                   1205 ;	C:/Program Files/SDCC/bin/../include/mcs51/c8051_SDCC.h:103: void Sys_Init(void)
                                   1206 ;	-----------------------------------------
                                   1207 ;	 function Sys_Init
                                   1208 ;	-----------------------------------------
      000037                       1209 _Sys_Init:
                           000037  1210 	C$c8051_SDCC.h$105$1$6 ==.
                                   1211 ;	C:/Program Files/SDCC/bin/../include/mcs51/c8051_SDCC.h:105: WDTCN = 0xde;			// disable watchdog timer
      000037 75 FF DE         [24] 1212 	mov	_WDTCN,#0xde
                           00003A  1213 	C$c8051_SDCC.h$106$1$6 ==.
                                   1214 ;	C:/Program Files/SDCC/bin/../include/mcs51/c8051_SDCC.h:106: WDTCN = 0xad;
      00003A 75 FF AD         [24] 1215 	mov	_WDTCN,#0xad
                           00003D  1216 	C$c8051_SDCC.h$108$1$6 ==.
                                   1217 ;	C:/Program Files/SDCC/bin/../include/mcs51/c8051_SDCC.h:108: SYSCLK_Init();			// initialize oscillator
      00003D 12r00r00         [24] 1218 	lcall	_SYSCLK_Init
                           000040  1219 	C$c8051_SDCC.h$109$1$6 ==.
                                   1220 ;	C:/Program Files/SDCC/bin/../include/mcs51/c8051_SDCC.h:109: UART0_Init();			// initialize UART0
      000040 12r00r20         [24] 1221 	lcall	_UART0_Init
                           000043  1222 	C$c8051_SDCC.h$111$1$6 ==.
                                   1223 ;	C:/Program Files/SDCC/bin/../include/mcs51/c8051_SDCC.h:111: XBR0 |= 0x04;
      000043 43 E1 04         [24] 1224 	orl	_XBR0,#0x04
                           000046  1225 	C$c8051_SDCC.h$112$1$6 ==.
                                   1226 ;	C:/Program Files/SDCC/bin/../include/mcs51/c8051_SDCC.h:112: XBR2 |= 0x40;                    	// Enable crossbar and weak pull-ups
      000046 43 E3 40         [24] 1227 	orl	_XBR2,#0x40
                           000049  1228 	C$c8051_SDCC.h$113$1$6 ==.
                           000049  1229 	XG$Sys_Init$0$0 ==.
      000049 22               [24] 1230 	ret
                                   1231 ;------------------------------------------------------------
                                   1232 ;Allocation info for local variables in function 'putchar'
                                   1233 ;------------------------------------------------------------
                                   1234 ;c                         Allocated to registers r7 
                                   1235 ;------------------------------------------------------------
                           00004A  1236 	G$putchar$0$0 ==.
                           00004A  1237 	C$c8051_SDCC.h$129$1$6 ==.
                                   1238 ;	C:/Program Files/SDCC/bin/../include/mcs51/c8051_SDCC.h:129: void putchar(char c)
                                   1239 ;	-----------------------------------------
                                   1240 ;	 function putchar
                                   1241 ;	-----------------------------------------
      00004A                       1242 _putchar:
      00004A AF 82            [24] 1243 	mov	r7,dpl
                           00004C  1244 	C$c8051_SDCC.h$132$1$8 ==.
                                   1245 ;	C:/Program Files/SDCC/bin/../include/mcs51/c8051_SDCC.h:132: while (!TI0); 
      00004C                       1246 00101$:
                           00004C  1247 	C$c8051_SDCC.h$133$1$8 ==.
                                   1248 ;	C:/Program Files/SDCC/bin/../include/mcs51/c8051_SDCC.h:133: TI0 = 0;
      00004C 10 99 02         [24] 1249 	jbc	_TI0,00112$
      00004F 80 FB            [24] 1250 	sjmp	00101$
      000051                       1251 00112$:
                           000051  1252 	C$c8051_SDCC.h$134$1$8 ==.
                                   1253 ;	C:/Program Files/SDCC/bin/../include/mcs51/c8051_SDCC.h:134: SBUF0 = c;
      000051 8F 99            [24] 1254 	mov	_SBUF0,r7
                           000053  1255 	C$c8051_SDCC.h$135$1$8 ==.
                           000053  1256 	XG$putchar$0$0 ==.
      000053 22               [24] 1257 	ret
                                   1258 ;------------------------------------------------------------
                                   1259 ;Allocation info for local variables in function 'getchar'
                                   1260 ;------------------------------------------------------------
                                   1261 ;c                         Allocated to registers r7 
                                   1262 ;------------------------------------------------------------
                           000054  1263 	G$getchar$0$0 ==.
                           000054  1264 	C$c8051_SDCC.h$154$1$8 ==.
                                   1265 ;	C:/Program Files/SDCC/bin/../include/mcs51/c8051_SDCC.h:154: char getchar(void)
                                   1266 ;	-----------------------------------------
                                   1267 ;	 function getchar
                                   1268 ;	-----------------------------------------
      000054                       1269 _getchar:
                           000054  1270 	C$c8051_SDCC.h$157$1$10 ==.
                                   1271 ;	C:/Program Files/SDCC/bin/../include/mcs51/c8051_SDCC.h:157: while (!RI0);
      000054                       1272 00101$:
                           000054  1273 	C$c8051_SDCC.h$158$1$10 ==.
                                   1274 ;	C:/Program Files/SDCC/bin/../include/mcs51/c8051_SDCC.h:158: RI0 = 0;
      000054 10 98 02         [24] 1275 	jbc	_RI0,00112$
      000057 80 FB            [24] 1276 	sjmp	00101$
      000059                       1277 00112$:
                           000059  1278 	C$c8051_SDCC.h$159$1$10 ==.
                                   1279 ;	C:/Program Files/SDCC/bin/../include/mcs51/c8051_SDCC.h:159: c = SBUF0;
      000059 AF 99            [24] 1280 	mov	r7,_SBUF0
                           00005B  1281 	C$c8051_SDCC.h$160$1$10 ==.
                                   1282 ;	C:/Program Files/SDCC/bin/../include/mcs51/c8051_SDCC.h:160: putchar(c);                          // echo to terminal
      00005B 8F 82            [24] 1283 	mov	dpl,r7
      00005D C0 07            [24] 1284 	push	ar7
      00005F 12r00r4A         [24] 1285 	lcall	_putchar
      000062 D0 07            [24] 1286 	pop	ar7
                           000064  1287 	C$c8051_SDCC.h$161$1$10 ==.
                                   1288 ;	C:/Program Files/SDCC/bin/../include/mcs51/c8051_SDCC.h:161: return c;
      000064 8F 82            [24] 1289 	mov	dpl,r7
                           000066  1290 	C$c8051_SDCC.h$162$1$10 ==.
                           000066  1291 	XG$getchar$0$0 ==.
      000066 22               [24] 1292 	ret
                                   1293 ;------------------------------------------------------------
                                   1294 ;Allocation info for local variables in function 'getchar_nw'
                                   1295 ;------------------------------------------------------------
                                   1296 ;c                         Allocated to registers 
                                   1297 ;------------------------------------------------------------
                           000067  1298 	G$getchar_nw$0$0 ==.
                           000067  1299 	C$c8051_SDCC.h$168$1$10 ==.
                                   1300 ;	C:/Program Files/SDCC/bin/../include/mcs51/c8051_SDCC.h:168: char getchar_nw(void)
                                   1301 ;	-----------------------------------------
                                   1302 ;	 function getchar_nw
                                   1303 ;	-----------------------------------------
      000067                       1304 _getchar_nw:
                           000067  1305 	C$c8051_SDCC.h$171$1$12 ==.
                                   1306 ;	C:/Program Files/SDCC/bin/../include/mcs51/c8051_SDCC.h:171: if (!RI0) return 0xFF;
      000067 20 98 05         [24] 1307 	jb	_RI0,00102$
      00006A 75 82 FF         [24] 1308 	mov	dpl,#0xff
      00006D 80 0B            [24] 1309 	sjmp	00104$
      00006F                       1310 00102$:
                           00006F  1311 	C$c8051_SDCC.h$174$2$13 ==.
                                   1312 ;	C:/Program Files/SDCC/bin/../include/mcs51/c8051_SDCC.h:174: RI0 = 0;
      00006F C2 98            [12] 1313 	clr	_RI0
                           000071  1314 	C$c8051_SDCC.h$175$2$13 ==.
                                   1315 ;	C:/Program Files/SDCC/bin/../include/mcs51/c8051_SDCC.h:175: c = SBUF0;
      000071 85 99 82         [24] 1316 	mov	dpl,_SBUF0
                           000074  1317 	C$c8051_SDCC.h$176$2$13 ==.
                                   1318 ;	C:/Program Files/SDCC/bin/../include/mcs51/c8051_SDCC.h:176: putchar(c);                          // echo to terminal
      000074 12r00r4A         [24] 1319 	lcall	_putchar
                           000077  1320 	C$c8051_SDCC.h$177$2$13 ==.
                                   1321 ;	C:/Program Files/SDCC/bin/../include/mcs51/c8051_SDCC.h:177: return SBUF0;
      000077 85 99 82         [24] 1322 	mov	dpl,_SBUF0
      00007A                       1323 00104$:
                           00007A  1324 	C$c8051_SDCC.h$179$1$12 ==.
                           00007A  1325 	XG$getchar_nw$0$0 ==.
      00007A 22               [24] 1326 	ret
                                   1327 ;------------------------------------------------------------
                                   1328 ;Allocation info for local variables in function 'main'
                                   1329 ;------------------------------------------------------------
                           00007B  1330 	G$main$0$0 ==.
                           00007B  1331 	C$lab2_func.c$88$1$12 ==.
                                   1332 ;	C:\Users\Tim\Documents\LITEC\Lab2\lab2-func.c:88: void main(void)
                                   1333 ;	-----------------------------------------
                                   1334 ;	 function main
                                   1335 ;	-----------------------------------------
      00007B                       1336 _main:
                           00007B  1337 	C$lab2_func.c$90$1$65 ==.
                                   1338 ;	C:\Users\Tim\Documents\LITEC\Lab2\lab2-func.c:90: Sys_Init();      // System Initialization
      00007B 12r00r37         [24] 1339 	lcall	_Sys_Init
                           00007E  1340 	C$lab2_func.c$91$1$65 ==.
                                   1341 ;	C:\Users\Tim\Documents\LITEC\Lab2\lab2-func.c:91: Port_Init();     // Initialize ports 2 and 3 
      00007E 12r00rB5         [24] 1342 	lcall	_Port_Init
                           000081  1343 	C$lab2_func.c$92$1$65 ==.
                                   1344 ;	C:\Users\Tim\Documents\LITEC\Lab2\lab2-func.c:92: Interrupt_Init();
      000081 12r00rCB         [24] 1345 	lcall	_Interrupt_Init
                           000084  1346 	C$lab2_func.c$93$1$65 ==.
                                   1347 ;	C:\Users\Tim\Documents\LITEC\Lab2\lab2-func.c:93: Timer_Init();    // Initialize Timer 0 
      000084 12r00rD1         [24] 1348 	lcall	_Timer_Init
                           000087  1349 	C$lab2_func.c$94$1$65 ==.
                                   1350 ;	C:\Users\Tim\Documents\LITEC\Lab2\lab2-func.c:94: ADC_Init();
      000087 12r00rF3         [24] 1351 	lcall	_ADC_Init
                           00008A  1352 	C$lab2_func.c$95$1$65 ==.
                                   1353 ;	C:\Users\Tim\Documents\LITEC\Lab2\lab2-func.c:95: printf("\r Start theGame!\n");
      00008A 74r00            [12] 1354 	mov	a,#___str_0
      00008C C0 E0            [24] 1355 	push	acc
      00008E 74s00            [12] 1356 	mov	a,#(___str_0 >> 8)
      000090 C0 E0            [24] 1357 	push	acc
      000092 74 80            [12] 1358 	mov	a,#0x80
      000094 C0 E0            [24] 1359 	push	acc
      000096 12r00r00         [24] 1360 	lcall	_printf
      000099 15 81            [12] 1361 	dec	sp
      00009B 15 81            [12] 1362 	dec	sp
      00009D 15 81            [12] 1363 	dec	sp
                           00009F  1364 	C$lab2_func.c$96$1$65 ==.
                                   1365 ;	C:\Users\Tim\Documents\LITEC\Lab2\lab2-func.c:96: putchar(' ');    // the quote fonts may not copy correctly into SiLabs IDE
      00009F 75 82 20         [24] 1366 	mov	dpl,#0x20
      0000A2 12r00r4A         [24] 1367 	lcall	_putchar
                           0000A5  1368 	C$lab2_func.c$97$1$65 ==.
                                   1369 ;	C:\Users\Tim\Documents\LITEC\Lab2\lab2-func.c:97: while(1)
      0000A5                       1370 00102$:
                           0000A5  1371 	C$lab2_func.c$99$2$66 ==.
                                   1372 ;	C:\Users\Tim\Documents\LITEC\Lab2\lab2-func.c:99: CDS();
      0000A5 12r01r67         [24] 1373 	lcall	_CDS
                           0000A8  1374 	C$lab2_func.c$100$2$66 ==.
                                   1375 ;	C:\Users\Tim\Documents\LITEC\Lab2\lab2-func.c:100: alive = 1;
      0000A8 75*18 01         [24] 1376 	mov	_alive,#0x01
                           0000AB  1377 	C$lab2_func.c$101$2$66 ==.
                                   1378 ;	C:\Users\Tim\Documents\LITEC\Lab2\lab2-func.c:101: score = 0;
      0000AB E4               [12] 1379 	clr	a
      0000AC F5*19            [12] 1380 	mov	(_alive + 1),a
      0000AE F5*02            [12] 1381 	mov	_score,a
      0000B0 F5*03            [12] 1382 	mov	(_score + 1),a
      0000B2 80 F1            [24] 1383 	sjmp	00102$
                           0000B4  1384 	C$lab2_func.c$104$1$65 ==.
                           0000B4  1385 	XG$main$0$0 ==.
      0000B4 22               [24] 1386 	ret
                                   1387 ;------------------------------------------------------------
                                   1388 ;Allocation info for local variables in function 'Port_Init'
                                   1389 ;------------------------------------------------------------
                           0000B5  1390 	G$Port_Init$0$0 ==.
                           0000B5  1391 	C$lab2_func.c$107$1$65 ==.
                                   1392 ;	C:\Users\Tim\Documents\LITEC\Lab2\lab2-func.c:107: void Port_Init(void)
                                   1393 ;	-----------------------------------------
                                   1394 ;	 function Port_Init
                                   1395 ;	-----------------------------------------
      0000B5                       1396 _Port_Init:
                           0000B5  1397 	C$lab2_func.c$110$1$68 ==.
                                   1398 ;	C:\Users\Tim\Documents\LITEC\Lab2\lab2-func.c:110: P3MDOUT &= 0xC0; // set Port 3 input pins to push-pull mode (fill in the blank)
      0000B5 53 A7 C0         [24] 1399 	anl	_P3MDOUT,#0xc0
                           0000B8  1400 	C$lab2_func.c$111$1$68 ==.
                                   1401 ;	C:\Users\Tim\Documents\LITEC\Lab2\lab2-func.c:111: P3MDOUT |= 0xC0; // set Port 3 output pins to open drain mode (fill in the blank)
      0000B8 43 A7 C0         [24] 1402 	orl	_P3MDOUT,#0xc0
                           0000BB  1403 	C$lab2_func.c$112$1$68 ==.
                                   1404 ;	C:\Users\Tim\Documents\LITEC\Lab2\lab2-func.c:112: P3 |= ~0xC0; // set Port 3 input pins to high impedance state (fill in the blank)
      0000BB 43 B0 3F         [24] 1405 	orl	_P3,#0x3f
                           0000BE  1406 	C$lab2_func.c$115$1$68 ==.
                                   1407 ;	C:\Users\Tim\Documents\LITEC\Lab2\lab2-func.c:115: P2MDOUT |= ~0xC0;  // set Port 2 output pins
      0000BE 43 A6 3F         [24] 1408 	orl	_P2MDOUT,#0x3f
                           0000C1  1409 	C$lab2_func.c$118$1$68 ==.
                                   1410 ;	C:\Users\Tim\Documents\LITEC\Lab2\lab2-func.c:118: P1MDIN &= ~0x10; /* Set P1.4 for analog input */
      0000C1 53 BD EF         [24] 1411 	anl	_P1MDIN,#0xef
                           0000C4  1412 	C$lab2_func.c$119$1$68 ==.
                                   1413 ;	C:\Users\Tim\Documents\LITEC\Lab2\lab2-func.c:119: P1MDOUT &= ~0x10; /* Set P1.4 to open drain */
      0000C4 53 A5 EF         [24] 1414 	anl	_P1MDOUT,#0xef
                           0000C7  1415 	C$lab2_func.c$120$1$68 ==.
                                   1416 ;	C:\Users\Tim\Documents\LITEC\Lab2\lab2-func.c:120: P1 |= 0x10; /* Send logic 1 to input pin P1.4 for impedance */
      0000C7 43 90 10         [24] 1417 	orl	_P1,#0x10
                           0000CA  1418 	C$lab2_func.c$121$1$68 ==.
                           0000CA  1419 	XG$Port_Init$0$0 ==.
      0000CA 22               [24] 1420 	ret
                                   1421 ;------------------------------------------------------------
                                   1422 ;Allocation info for local variables in function 'Interrupt_Init'
                                   1423 ;------------------------------------------------------------
                           0000CB  1424 	G$Interrupt_Init$0$0 ==.
                           0000CB  1425 	C$lab2_func.c$123$1$68 ==.
                                   1426 ;	C:\Users\Tim\Documents\LITEC\Lab2\lab2-func.c:123: void Interrupt_Init(void)
                                   1427 ;	-----------------------------------------
                                   1428 ;	 function Interrupt_Init
                                   1429 ;	-----------------------------------------
      0000CB                       1430 _Interrupt_Init:
                           0000CB  1431 	C$lab2_func.c$125$1$70 ==.
                                   1432 ;	C:\Users\Tim\Documents\LITEC\Lab2\lab2-func.c:125: IE |= 0x02;      // enable Timer0 Interrupt request (by masking)
      0000CB 43 A8 02         [24] 1433 	orl	_IE,#0x02
                           0000CE  1434 	C$lab2_func.c$126$1$70 ==.
                                   1435 ;	C:\Users\Tim\Documents\LITEC\Lab2\lab2-func.c:126: EA = 1;       // enable global interrupts (by sbit)
      0000CE D2 AF            [12] 1436 	setb	_EA
                           0000D0  1437 	C$lab2_func.c$127$1$70 ==.
                           0000D0  1438 	XG$Interrupt_Init$0$0 ==.
      0000D0 22               [24] 1439 	ret
                                   1440 ;------------------------------------------------------------
                                   1441 ;Allocation info for local variables in function 'Timer_Init'
                                   1442 ;------------------------------------------------------------
                           0000D1  1443 	G$Timer_Init$0$0 ==.
                           0000D1  1444 	C$lab2_func.c$129$1$70 ==.
                                   1445 ;	C:\Users\Tim\Documents\LITEC\Lab2\lab2-func.c:129: void Timer_Init(void)
                                   1446 ;	-----------------------------------------
                                   1447 ;	 function Timer_Init
                                   1448 ;	-----------------------------------------
      0000D1                       1449 _Timer_Init:
                           0000D1  1450 	C$lab2_func.c$132$1$72 ==.
                                   1451 ;	C:\Users\Tim\Documents\LITEC\Lab2\lab2-func.c:132: CKCON |= 0x08;  // Timer0 uses SYSCLK as source
      0000D1 43 8E 08         [24] 1452 	orl	_CKCON,#0x08
                           0000D4  1453 	C$lab2_func.c$133$1$72 ==.
                                   1454 ;	C:\Users\Tim\Documents\LITEC\Lab2\lab2-func.c:133: TMOD &= 0xF0;   // clear the 4 least significant bits
      0000D4 53 89 F0         [24] 1455 	anl	_TMOD,#0xf0
                           0000D7  1456 	C$lab2_func.c$134$1$72 ==.
                                   1457 ;	C:\Users\Tim\Documents\LITEC\Lab2\lab2-func.c:134: TMOD |= 0x01;   // Timer0 in mode 1
      0000D7 43 89 01         [24] 1458 	orl	_TMOD,#0x01
                           0000DA  1459 	C$lab2_func.c$135$1$72 ==.
                                   1460 ;	C:\Users\Tim\Documents\LITEC\Lab2\lab2-func.c:135: TR0 = 0;           // Stop Timer0
      0000DA C2 8C            [12] 1461 	clr	_TR0
                           0000DC  1462 	C$lab2_func.c$136$1$72 ==.
                                   1463 ;	C:\Users\Tim\Documents\LITEC\Lab2\lab2-func.c:136: TMR0 = 0;           // Clear high & low byte of T0
      0000DC E4               [12] 1464 	clr	a
      0000DD F5 8A            [12] 1465 	mov	((_TMR0 >> 0) & 0xFF),a
      0000DF F5 8C            [12] 1466 	mov	((_TMR0 >> 8) & 0xFF),a
                           0000E1  1467 	C$lab2_func.c$138$1$72 ==.
                           0000E1  1468 	XG$Timer_Init$0$0 ==.
      0000E1 22               [24] 1469 	ret
                                   1470 ;------------------------------------------------------------
                                   1471 ;Allocation info for local variables in function 'Timer0_ISR'
                                   1472 ;------------------------------------------------------------
                           0000E2  1473 	G$Timer0_ISR$0$0 ==.
                           0000E2  1474 	C$lab2_func.c$142$1$72 ==.
                                   1475 ;	C:\Users\Tim\Documents\LITEC\Lab2\lab2-func.c:142: void Timer0_ISR(void) __interrupt 1
                                   1476 ;	-----------------------------------------
                                   1477 ;	 function Timer0_ISR
                                   1478 ;	-----------------------------------------
      0000E2                       1479 _Timer0_ISR:
      0000E2 C0 E0            [24] 1480 	push	acc
      0000E4 C0 D0            [24] 1481 	push	psw
                           0000E6  1482 	C$lab2_func.c$144$1$74 ==.
                                   1483 ;	C:\Users\Tim\Documents\LITEC\Lab2\lab2-func.c:144: Counts++;// add interrupt code here, in this lab, the code will increment the 
      0000E6 05*00            [12] 1484 	inc	_Counts
      0000E8 E4               [12] 1485 	clr	a
      0000E9 B5*00 02         [24] 1486 	cjne	a,_Counts,00103$
      0000EC 05*01            [12] 1487 	inc	(_Counts + 1)
      0000EE                       1488 00103$:
      0000EE D0 D0            [24] 1489 	pop	psw
      0000F0 D0 E0            [24] 1490 	pop	acc
                           0000F2  1491 	C$lab2_func.c$146$1$74 ==.
                           0000F2  1492 	XG$Timer0_ISR$0$0 ==.
      0000F2 32               [24] 1493 	reti
                                   1494 ;	eliminated unneeded mov psw,# (no regs used in bank)
                                   1495 ;	eliminated unneeded push/pop dpl
                                   1496 ;	eliminated unneeded push/pop dph
                                   1497 ;	eliminated unneeded push/pop b
                                   1498 ;------------------------------------------------------------
                                   1499 ;Allocation info for local variables in function 'ADC_Init'
                                   1500 ;------------------------------------------------------------
                           0000F3  1501 	G$ADC_Init$0$0 ==.
                           0000F3  1502 	C$lab2_func.c$148$1$74 ==.
                                   1503 ;	C:\Users\Tim\Documents\LITEC\Lab2\lab2-func.c:148: void ADC_Init(void)
                                   1504 ;	-----------------------------------------
                                   1505 ;	 function ADC_Init
                                   1506 ;	-----------------------------------------
      0000F3                       1507 _ADC_Init:
                           0000F3  1508 	C$lab2_func.c$150$1$76 ==.
                                   1509 ;	C:\Users\Tim\Documents\LITEC\Lab2\lab2-func.c:150: REF0CN = 0x03;  /* Set Vref to use internal reference voltage (2.4V) */
      0000F3 75 D1 03         [24] 1510 	mov	_REF0CN,#0x03
                           0000F6  1511 	C$lab2_func.c$151$1$76 ==.
                                   1512 ;	C:\Users\Tim\Documents\LITEC\Lab2\lab2-func.c:151: ADC1CN = 0x80;  /* Enable A/D converter (ADC1) */
      0000F6 75 AA 80         [24] 1513 	mov	_ADC1CN,#0x80
                           0000F9  1514 	C$lab2_func.c$152$1$76 ==.
                                   1515 ;	C:\Users\Tim\Documents\LITEC\Lab2\lab2-func.c:152: ADC1CF |= 0x01; /* Set A/D converter gain to 1 */
      0000F9 43 AB 01         [24] 1516 	orl	_ADC1CF,#0x01
                           0000FC  1517 	C$lab2_func.c$153$1$76 ==.
                           0000FC  1518 	XG$ADC_Init$0$0 ==.
      0000FC 22               [24] 1519 	ret
                                   1520 ;------------------------------------------------------------
                                   1521 ;Allocation info for local variables in function 'read_AD_input'
                                   1522 ;------------------------------------------------------------
                                   1523 ;n                         Allocated to registers 
                                   1524 ;------------------------------------------------------------
                           0000FD  1525 	G$read_AD_input$0$0 ==.
                           0000FD  1526 	C$lab2_func.c$155$1$76 ==.
                                   1527 ;	C:\Users\Tim\Documents\LITEC\Lab2\lab2-func.c:155: unsigned char read_AD_input(unsigned char n)
                                   1528 ;	-----------------------------------------
                                   1529 ;	 function read_AD_input
                                   1530 ;	-----------------------------------------
      0000FD                       1531 _read_AD_input:
      0000FD 85 82 AC         [24] 1532 	mov	_AMX1SL,dpl
                           000100  1533 	C$lab2_func.c$158$1$78 ==.
                                   1534 ;	C:\Users\Tim\Documents\LITEC\Lab2\lab2-func.c:158: ADC1CN = ADC1CN & ~0x20; /* Clear the Conversion Completed flag */
      000100 53 AA DF         [24] 1535 	anl	_ADC1CN,#0xdf
                           000103  1536 	C$lab2_func.c$159$1$78 ==.
                                   1537 ;	C:\Users\Tim\Documents\LITEC\Lab2\lab2-func.c:159: ADC1CN = ADC1CN | 0x10; /* Initiate A/D conversion */
      000103 43 AA 10         [24] 1538 	orl	_ADC1CN,#0x10
                           000106  1539 	C$lab2_func.c$160$1$78 ==.
                                   1540 ;	C:\Users\Tim\Documents\LITEC\Lab2\lab2-func.c:160: while ((ADC1CN & 0x20) == 0x00); /* Wait for conversion to complete */
      000106                       1541 00101$:
      000106 E5 AA            [12] 1542 	mov	a,_ADC1CN
      000108 30 E5 FB         [24] 1543 	jnb	acc.5,00101$
                           00010B  1544 	C$lab2_func.c$161$1$78 ==.
                                   1545 ;	C:\Users\Tim\Documents\LITEC\Lab2\lab2-func.c:161: return ADC1; /* Return digital value in ADC1 register */
      00010B 85 9C 82         [24] 1546 	mov	dpl,_ADC1
                           00010E  1547 	C$lab2_func.c$162$1$78 ==.
                           00010E  1548 	XG$read_AD_input$0$0 ==.
      00010E 22               [24] 1549 	ret
                                   1550 ;------------------------------------------------------------
                                   1551 ;Allocation info for local variables in function 'random'
                                   1552 ;------------------------------------------------------------
                                   1553 ;mode                      Allocated to registers r7 
                                   1554 ;------------------------------------------------------------
                           00010F  1555 	G$random$0$0 ==.
                           00010F  1556 	C$lab2_func.c$171$1$78 ==.
                                   1557 ;	C:\Users\Tim\Documents\LITEC\Lab2\lab2-func.c:171: unsigned char random(unsigned char mode)
                                   1558 ;	-----------------------------------------
                                   1559 ;	 function random
                                   1560 ;	-----------------------------------------
      00010F                       1561 _random:
                           00010F  1562 	C$lab2_func.c$173$1$80 ==.
                                   1563 ;	C:\Users\Tim\Documents\LITEC\Lab2\lab2-func.c:173: if(mode == 0)        // rand returns a random number between 0 and 32767.
      00010F E5 82            [12] 1564 	mov	a,dpl
      000111 FF               [12] 1565 	mov	r7,a
      000112 70 12            [24] 1566 	jnz	00102$
                           000114  1567 	C$lab2_func.c$174$1$80 ==.
                                   1568 ;	C:\Users\Tim\Documents\LITEC\Lab2\lab2-func.c:174: return rand()%4;   // return random 0,1,2,3
      000114 12r00r00         [24] 1569 	lcall	_rand
      000117 75*00 04         [24] 1570 	mov	__modsint_PARM_2,#0x04
      00011A 75*01 00         [24] 1571 	mov	(__modsint_PARM_2 + 1),#0x00
      00011D 12r00r00         [24] 1572 	lcall	__modsint
      000120 AD 82            [24] 1573 	mov	r5,dpl
      000122 AE 83            [24] 1574 	mov	r6,dph
      000124 80 31            [24] 1575 	sjmp	00108$
      000126                       1576 00102$:
                           000126  1577 	C$lab2_func.c$175$1$80 ==.
                                   1578 ;	C:\Users\Tim\Documents\LITEC\Lab2\lab2-func.c:175: if(mode == 1)		 
      000126 BF 01 16         [24] 1579 	cjne	r7,#0x01,00104$
                           000129  1580 	C$lab2_func.c$176$1$80 ==.
                                   1581 ;	C:\Users\Tim\Documents\LITEC\Lab2\lab2-func.c:176: return rand()%3+1;  //return random 1,2,3
      000129 12r00r00         [24] 1582 	lcall	_rand
      00012C 75*00 03         [24] 1583 	mov	__modsint_PARM_2,#0x03
      00012F 75*01 00         [24] 1584 	mov	(__modsint_PARM_2 + 1),#0x00
      000132 12r00r00         [24] 1585 	lcall	__modsint
      000135 AD 82            [24] 1586 	mov	r5,dpl
      000137 AE 83            [24] 1587 	mov	r6,dph
      000139 ED               [12] 1588 	mov	a,r5
      00013A 04               [12] 1589 	inc	a
      00013B F5 82            [12] 1590 	mov	dpl,a
      00013D 80 18            [24] 1591 	sjmp	00108$
      00013F                       1592 00104$:
                           00013F  1593 	C$lab2_func.c$177$1$80 ==.
                                   1594 ;	C:\Users\Tim\Documents\LITEC\Lab2\lab2-func.c:177: if(mode == 3)
      00013F BF 03 12         [24] 1595 	cjne	r7,#0x03,00106$
                           000142  1596 	C$lab2_func.c$178$1$80 ==.
                                   1597 ;	C:\Users\Tim\Documents\LITEC\Lab2\lab2-func.c:178: return rand()%2; //returns 0 or 1 
      000142 12r00r00         [24] 1598 	lcall	_rand
      000145 75*00 02         [24] 1599 	mov	__modsint_PARM_2,#0x02
      000148 75*01 00         [24] 1600 	mov	(__modsint_PARM_2 + 1),#0x00
      00014B 12r00r00         [24] 1601 	lcall	__modsint
      00014E AE 82            [24] 1602 	mov	r6,dpl
      000150 AF 83            [24] 1603 	mov	r7,dph
      000152 80 03            [24] 1604 	sjmp	00108$
      000154                       1605 00106$:
                           000154  1606 	C$lab2_func.c$180$1$80 ==.
                                   1607 ;	C:\Users\Tim\Documents\LITEC\Lab2\lab2-func.c:180: return 4;                   
      000154 75 82 04         [24] 1608 	mov	dpl,#0x04
      000157                       1609 00108$:
                           000157  1610 	C$lab2_func.c$181$1$80 ==.
                           000157  1611 	XG$random$0$0 ==.
      000157 22               [24] 1612 	ret
                                   1613 ;------------------------------------------------------------
                                   1614 ;Allocation info for local variables in function 'clear'
                                   1615 ;------------------------------------------------------------
                           000158  1616 	G$clear$0$0 ==.
                           000158  1617 	C$lab2_func.c$185$1$80 ==.
                                   1618 ;	C:\Users\Tim\Documents\LITEC\Lab2\lab2-func.c:185: void clear(void)
                                   1619 ;	-----------------------------------------
                                   1620 ;	 function clear
                                   1621 ;	-----------------------------------------
      000158                       1622 _clear:
                           000158  1623 	C$lab2_func.c$187$1$82 ==.
                                   1624 ;	C:\Users\Tim\Documents\LITEC\Lab2\lab2-func.c:187: BILED1 = 1;  // Turn OFF the LEDs and Buzzer
      000158 D2 B7            [12] 1625 	setb	_BILED1
                           00015A  1626 	C$lab2_func.c$188$1$82 ==.
                                   1627 ;	C:\Users\Tim\Documents\LITEC\Lab2\lab2-func.c:188: BILED2 = 1;
      00015A D2 A1            [12] 1628 	setb	_BILED2
                           00015C  1629 	C$lab2_func.c$189$1$82 ==.
                                   1630 ;	C:\Users\Tim\Documents\LITEC\Lab2\lab2-func.c:189: LED0 = 1;
      00015C D2 A0            [12] 1631 	setb	_LED0
                           00015E  1632 	C$lab2_func.c$190$1$82 ==.
                                   1633 ;	C:\Users\Tim\Documents\LITEC\Lab2\lab2-func.c:190: LED1 = 1;
      00015E D2 A2            [12] 1634 	setb	_LED1
                           000160  1635 	C$lab2_func.c$191$1$82 ==.
                                   1636 ;	C:\Users\Tim\Documents\LITEC\Lab2\lab2-func.c:191: LED2 = 1;
      000160 D2 A3            [12] 1637 	setb	_LED2
                           000162  1638 	C$lab2_func.c$192$1$82 ==.
                                   1639 ;	C:\Users\Tim\Documents\LITEC\Lab2\lab2-func.c:192: LED3 = 1;
      000162 D2 A5            [12] 1640 	setb	_LED3
                           000164  1641 	C$lab2_func.c$193$1$82 ==.
                                   1642 ;	C:\Users\Tim\Documents\LITEC\Lab2\lab2-func.c:193: BUZZER = 1;
      000164 D2 B6            [12] 1643 	setb	_BUZZER
                           000166  1644 	C$lab2_func.c$194$1$82 ==.
                           000166  1645 	XG$clear$0$0 ==.
      000166 22               [24] 1646 	ret
                                   1647 ;------------------------------------------------------------
                                   1648 ;Allocation info for local variables in function 'CDS'
                                   1649 ;------------------------------------------------------------
                           000167  1650 	G$CDS$0$0 ==.
                           000167  1651 	C$lab2_func.c$197$1$82 ==.
                                   1652 ;	C:\Users\Tim\Documents\LITEC\Lab2\lab2-func.c:197: void CDS(void)
                                   1653 ;	-----------------------------------------
                                   1654 ;	 function CDS
                                   1655 ;	-----------------------------------------
      000167                       1656 _CDS:
                           000167  1657 	C$lab2_func.c$199$1$84 ==.
                                   1658 ;	C:\Users\Tim\Documents\LITEC\Lab2\lab2-func.c:199: printf("Switch to your desired mode: \r\n \
      000167 74r12            [12] 1659 	mov	a,#___str_1
      000169 C0 E0            [24] 1660 	push	acc
      00016B 74s00            [12] 1661 	mov	a,#(___str_1 >> 8)
      00016D C0 E0            [24] 1662 	push	acc
      00016F 74 80            [12] 1663 	mov	a,#0x80
      000171 C0 E0            [24] 1664 	push	acc
      000173 12r00r00         [24] 1665 	lcall	_printf
      000176 15 81            [12] 1666 	dec	sp
      000178 15 81            [12] 1667 	dec	sp
      00017A 15 81            [12] 1668 	dec	sp
                           00017C  1669 	C$lab2_func.c$204$1$84 ==.
                                   1670 ;	C:\Users\Tim\Documents\LITEC\Lab2\lab2-func.c:204: printf("Press a key on your computer after the selection to start the game \r\n");
      00017C 74rC1            [12] 1671 	mov	a,#___str_2
      00017E C0 E0            [24] 1672 	push	acc
      000180 74s00            [12] 1673 	mov	a,#(___str_2 >> 8)
      000182 C0 E0            [24] 1674 	push	acc
      000184 74 80            [12] 1675 	mov	a,#0x80
      000186 C0 E0            [24] 1676 	push	acc
      000188 12r00r00         [24] 1677 	lcall	_printf
      00018B 15 81            [12] 1678 	dec	sp
      00018D 15 81            [12] 1679 	dec	sp
      00018F 15 81            [12] 1680 	dec	sp
                           000191  1681 	C$lab2_func.c$205$1$84 ==.
                                   1682 ;	C:\Users\Tim\Documents\LITEC\Lab2\lab2-func.c:205: input = getchar();
      000191 12r00r54         [24] 1683 	lcall	_getchar
      000194 85 82*04         [24] 1684 	mov	_input,dpl
                           000197  1685 	C$lab2_func.c$206$1$84 ==.
                                   1686 ;	C:\Users\Tim\Documents\LITEC\Lab2\lab2-func.c:206: if(SS0 && SS1)
      000197 30 B1 1D         [24] 1687 	jnb	_SS0,00113$
      00019A 30 B0 1A         [24] 1688 	jnb	_SS1,00113$
                           00019D  1689 	C$lab2_func.c$208$2$85 ==.
                                   1690 ;	C:\Users\Tim\Documents\LITEC\Lab2\lab2-func.c:208: printf("You are currently in mode 0, GL! \r\n");
      00019D 74r07            [12] 1691 	mov	a,#___str_3
      00019F C0 E0            [24] 1692 	push	acc
      0001A1 74s01            [12] 1693 	mov	a,#(___str_3 >> 8)
      0001A3 C0 E0            [24] 1694 	push	acc
      0001A5 74 80            [12] 1695 	mov	a,#0x80
      0001A7 C0 E0            [24] 1696 	push	acc
      0001A9 12r00r00         [24] 1697 	lcall	_printf
      0001AC 15 81            [12] 1698 	dec	sp
      0001AE 15 81            [12] 1699 	dec	sp
      0001B0 15 81            [12] 1700 	dec	sp
                           0001B2  1701 	C$lab2_func.c$209$2$85 ==.
                                   1702 ;	C:\Users\Tim\Documents\LITEC\Lab2\lab2-func.c:209: mode0();
      0001B2 12r02r16         [24] 1703 	lcall	_mode0
      0001B5 80 5E            [24] 1704 	sjmp	00116$
      0001B7                       1705 00113$:
                           0001B7  1706 	C$lab2_func.c$211$1$84 ==.
                                   1707 ;	C:\Users\Tim\Documents\LITEC\Lab2\lab2-func.c:211: else if(SS0 && !SS1)
      0001B7 30 B1 1D         [24] 1708 	jnb	_SS0,00109$
      0001BA 20 B0 1A         [24] 1709 	jb	_SS1,00109$
                           0001BD  1710 	C$lab2_func.c$212$2$86 ==.
                                   1711 ;	C:\Users\Tim\Documents\LITEC\Lab2\lab2-func.c:212: {	printf("You are currently in mode 1, CHA! CHA! \r\n");
      0001BD 74r2B            [12] 1712 	mov	a,#___str_4
      0001BF C0 E0            [24] 1713 	push	acc
      0001C1 74s01            [12] 1714 	mov	a,#(___str_4 >> 8)
      0001C3 C0 E0            [24] 1715 	push	acc
      0001C5 74 80            [12] 1716 	mov	a,#0x80
      0001C7 C0 E0            [24] 1717 	push	acc
      0001C9 12r00r00         [24] 1718 	lcall	_printf
      0001CC 15 81            [12] 1719 	dec	sp
      0001CE 15 81            [12] 1720 	dec	sp
      0001D0 15 81            [12] 1721 	dec	sp
                           0001D2  1722 	C$lab2_func.c$213$2$86 ==.
                                   1723 ;	C:\Users\Tim\Documents\LITEC\Lab2\lab2-func.c:213: mode1();
      0001D2 12r02r17         [24] 1724 	lcall	_mode1
      0001D5 80 3E            [24] 1725 	sjmp	00116$
      0001D7                       1726 00109$:
                           0001D7  1727 	C$lab2_func.c$215$1$84 ==.
                                   1728 ;	C:\Users\Tim\Documents\LITEC\Lab2\lab2-func.c:215: else if(!SS0 && SS1)
      0001D7 20 B1 1D         [24] 1729 	jb	_SS0,00105$
      0001DA 30 B0 1A         [24] 1730 	jnb	_SS1,00105$
                           0001DD  1731 	C$lab2_func.c$217$2$87 ==.
                                   1732 ;	C:\Users\Tim\Documents\LITEC\Lab2\lab2-func.c:217: printf("You are currently in mode 2, Emmmm... \r\n");
      0001DD 74r55            [12] 1733 	mov	a,#___str_5
      0001DF C0 E0            [24] 1734 	push	acc
      0001E1 74s01            [12] 1735 	mov	a,#(___str_5 >> 8)
      0001E3 C0 E0            [24] 1736 	push	acc
      0001E5 74 80            [12] 1737 	mov	a,#0x80
      0001E7 C0 E0            [24] 1738 	push	acc
      0001E9 12r00r00         [24] 1739 	lcall	_printf
      0001EC 15 81            [12] 1740 	dec	sp
      0001EE 15 81            [12] 1741 	dec	sp
      0001F0 15 81            [12] 1742 	dec	sp
                           0001F2  1743 	C$lab2_func.c$218$2$87 ==.
                                   1744 ;	C:\Users\Tim\Documents\LITEC\Lab2\lab2-func.c:218: mode2();
      0001F2 12r03rFD         [24] 1745 	lcall	_mode2
      0001F5 80 1E            [24] 1746 	sjmp	00116$
      0001F7                       1747 00105$:
                           0001F7  1748 	C$lab2_func.c$220$1$84 ==.
                                   1749 ;	C:\Users\Tim\Documents\LITEC\Lab2\lab2-func.c:220: else if(!SS0 && !SS1)
      0001F7 20 B1 1B         [24] 1750 	jb	_SS0,00116$
      0001FA 20 B0 18         [24] 1751 	jb	_SS1,00116$
                           0001FD  1752 	C$lab2_func.c$222$2$88 ==.
                                   1753 ;	C:\Users\Tim\Documents\LITEC\Lab2\lab2-func.c:222: printf("You are currently in mode 3, wanna be faster? \r\n");
      0001FD 74r7E            [12] 1754 	mov	a,#___str_6
      0001FF C0 E0            [24] 1755 	push	acc
      000201 74s01            [12] 1756 	mov	a,#(___str_6 >> 8)
      000203 C0 E0            [24] 1757 	push	acc
      000205 74 80            [12] 1758 	mov	a,#0x80
      000207 C0 E0            [24] 1759 	push	acc
      000209 12r00r00         [24] 1760 	lcall	_printf
      00020C 15 81            [12] 1761 	dec	sp
      00020E 15 81            [12] 1762 	dec	sp
      000210 15 81            [12] 1763 	dec	sp
                           000212  1764 	C$lab2_func.c$223$2$88 ==.
                                   1765 ;	C:\Users\Tim\Documents\LITEC\Lab2\lab2-func.c:223: mode3();
      000212 12r06rB7         [24] 1766 	lcall	_mode3
      000215                       1767 00116$:
                           000215  1768 	C$lab2_func.c$225$1$84 ==.
                           000215  1769 	XG$CDS$0$0 ==.
      000215 22               [24] 1770 	ret
                                   1771 ;------------------------------------------------------------
                                   1772 ;Allocation info for local variables in function 'mode0'
                                   1773 ;------------------------------------------------------------
                           000216  1774 	G$mode0$0$0 ==.
                           000216  1775 	C$lab2_func.c$227$1$84 ==.
                                   1776 ;	C:\Users\Tim\Documents\LITEC\Lab2\lab2-func.c:227: void mode0(void)
                                   1777 ;	-----------------------------------------
                                   1778 ;	 function mode0
                                   1779 ;	-----------------------------------------
      000216                       1780 _mode0:
                           000216  1781 	C$lab2_func.c$229$1$84 ==.
                                   1782 ;	C:\Users\Tim\Documents\LITEC\Lab2\lab2-func.c:229: }
                           000216  1783 	C$lab2_func.c$229$1$84 ==.
                           000216  1784 	XG$mode0$0$0 ==.
      000216 22               [24] 1785 	ret
                                   1786 ;------------------------------------------------------------
                                   1787 ;Allocation info for local variables in function 'mode1'
                                   1788 ;------------------------------------------------------------
                           000217  1789 	G$mode1$0$0 ==.
                           000217  1790 	C$lab2_func.c$232$1$84 ==.
                                   1791 ;	C:\Users\Tim\Documents\LITEC\Lab2\lab2-func.c:232: void mode1(void)//currently easy mode1
                                   1792 ;	-----------------------------------------
                                   1793 ;	 function mode1
                                   1794 ;	-----------------------------------------
      000217                       1795 _mode1:
                           000217  1796 	C$lab2_func.c$235$1$92 ==.
                                   1797 ;	C:\Users\Tim\Documents\LITEC\Lab2\lab2-func.c:235: printf("game rule\r\n");
      000217 74rAF            [12] 1798 	mov	a,#___str_7
      000219 C0 E0            [24] 1799 	push	acc
      00021B 74s01            [12] 1800 	mov	a,#(___str_7 >> 8)
      00021D C0 E0            [24] 1801 	push	acc
      00021F 74 80            [12] 1802 	mov	a,#0x80
      000221 C0 E0            [24] 1803 	push	acc
      000223 12r00r00         [24] 1804 	lcall	_printf
      000226 15 81            [12] 1805 	dec	sp
      000228 15 81            [12] 1806 	dec	sp
      00022A 15 81            [12] 1807 	dec	sp
                           00022C  1808 	C$lab2_func.c$236$1$92 ==.
                                   1809 ;	C:\Users\Tim\Documents\LITEC\Lab2\lab2-func.c:236: theBuzz();
      00022C 12r0Ar65         [24] 1810 	lcall	_theBuzz
                           00022F  1811 	C$lab2_func.c$237$1$92 ==.
                                   1812 ;	C:\Users\Tim\Documents\LITEC\Lab2\lab2-func.c:237: theBuzz();
      00022F 12r0Ar65         [24] 1813 	lcall	_theBuzz
                           000232  1814 	C$lab2_func.c$241$1$92 ==.
                                   1815 ;	C:\Users\Tim\Documents\LITEC\Lab2\lab2-func.c:241: for(i = 0; i < 8; i++)
      000232 75*05 00         [24] 1816 	mov	_i,#0x00
      000235                       1817 00128$:
                           000235  1818 	C$lab2_func.c$243$2$93 ==.
                                   1819 ;	C:\Users\Tim\Documents\LITEC\Lab2\lab2-func.c:243: light[i] = random(0);
      000235 E5*05            [12] 1820 	mov	a,_i
      000237 24r08            [12] 1821 	add	a,#_light
      000239 F9               [12] 1822 	mov	r1,a
      00023A 75 82 00         [24] 1823 	mov	dpl,#0x00
      00023D C0 01            [24] 1824 	push	ar1
      00023F 12r01r0F         [24] 1825 	lcall	_random
      000242 E5 82            [12] 1826 	mov	a,dpl
      000244 D0 01            [24] 1827 	pop	ar1
      000246 F7               [12] 1828 	mov	@r1,a
                           000247  1829 	C$lab2_func.c$244$2$93 ==.
                                   1830 ;	C:\Users\Tim\Documents\LITEC\Lab2\lab2-func.c:244: times[i] = random(1);
      000247 E5*05            [12] 1831 	mov	a,_i
      000249 24r10            [12] 1832 	add	a,#_times
      00024B F9               [12] 1833 	mov	r1,a
      00024C 75 82 01         [24] 1834 	mov	dpl,#0x01
      00024F C0 01            [24] 1835 	push	ar1
      000251 12r01r0F         [24] 1836 	lcall	_random
      000254 E5 82            [12] 1837 	mov	a,dpl
      000256 D0 01            [24] 1838 	pop	ar1
      000258 F7               [12] 1839 	mov	@r1,a
                           000259  1840 	C$lab2_func.c$246$2$93 ==.
                                   1841 ;	C:\Users\Tim\Documents\LITEC\Lab2\lab2-func.c:246: printf("%u|%u \r\n",light[i],times[i]);
      000259 E5*05            [12] 1842 	mov	a,_i
      00025B 24r10            [12] 1843 	add	a,#_times
      00025D F9               [12] 1844 	mov	r1,a
      00025E 87 07            [24] 1845 	mov	ar7,@r1
      000260 7E 00            [12] 1846 	mov	r6,#0x00
      000262 E5*05            [12] 1847 	mov	a,_i
      000264 24r08            [12] 1848 	add	a,#_light
      000266 F9               [12] 1849 	mov	r1,a
      000267 87 05            [24] 1850 	mov	ar5,@r1
      000269 7C 00            [12] 1851 	mov	r4,#0x00
      00026B C0 07            [24] 1852 	push	ar7
      00026D C0 06            [24] 1853 	push	ar6
      00026F C0 05            [24] 1854 	push	ar5
      000271 C0 04            [24] 1855 	push	ar4
      000273 74rBB            [12] 1856 	mov	a,#___str_8
      000275 C0 E0            [24] 1857 	push	acc
      000277 74s01            [12] 1858 	mov	a,#(___str_8 >> 8)
      000279 C0 E0            [24] 1859 	push	acc
      00027B 74 80            [12] 1860 	mov	a,#0x80
      00027D C0 E0            [24] 1861 	push	acc
      00027F 12r00r00         [24] 1862 	lcall	_printf
      000282 E5 81            [12] 1863 	mov	a,sp
      000284 24 F9            [12] 1864 	add	a,#0xf9
      000286 F5 81            [12] 1865 	mov	sp,a
                           000288  1866 	C$lab2_func.c$241$1$92 ==.
                                   1867 ;	C:\Users\Tim\Documents\LITEC\Lab2\lab2-func.c:241: for(i = 0; i < 8; i++)
      000288 05*05            [12] 1868 	inc	_i
      00028A 74 F8            [12] 1869 	mov	a,#0x100 - 0x08
      00028C 25*05            [12] 1870 	add	a,_i
      00028E 50 A5            [24] 1871 	jnc	00128$
                           000290  1872 	C$lab2_func.c$250$1$92 ==.
                                   1873 ;	C:\Users\Tim\Documents\LITEC\Lab2\lab2-func.c:250: for(i = 0; i < 8; i++) //8 sequence of the game
      000290 75*05 00         [24] 1874 	mov	_i,#0x00
      000293                       1875 00144$:
                           000293  1876 	C$lab2_func.c$253$2$94 ==.
                                   1877 ;	C:\Users\Tim\Documents\LITEC\Lab2\lab2-func.c:253: for(seq = 0; seq < i || seq == i; seq++)
      000293 75*1A 00         [24] 1878 	mov	_seq,#0x00
      000296                       1879 00135$:
      000296 C3               [12] 1880 	clr	c
      000297 E5*1A            [12] 1881 	mov	a,_seq
      000299 95*05            [12] 1882 	subb	a,_i
      00029B 40 05            [24] 1883 	jc	00134$
      00029D E5*05            [12] 1884 	mov	a,_i
      00029F B5*1A 22         [24] 1885 	cjne	a,_seq,00103$
      0002A2                       1886 00134$:
                           0002A2  1887 	C$lab2_func.c$254$2$94 ==.
                                   1888 ;	C:\Users\Tim\Documents\LITEC\Lab2\lab2-func.c:254: for(rep = 1; rep <= times[seq]; rep++)
      0002A2 75*1B 01         [24] 1889 	mov	_rep,#0x01
      0002A5                       1890 00131$:
      0002A5 E5*1A            [12] 1891 	mov	a,_seq
      0002A7 24r10            [12] 1892 	add	a,#_times
      0002A9 F9               [12] 1893 	mov	r1,a
      0002AA 87 07            [24] 1894 	mov	ar7,@r1
      0002AC C3               [12] 1895 	clr	c
      0002AD EF               [12] 1896 	mov	a,r7
      0002AE 95*1B            [12] 1897 	subb	a,_rep
      0002B0 40 0E            [24] 1898 	jc	00136$
                           0002B2  1899 	C$lab2_func.c$255$2$94 ==.
                                   1900 ;	C:\Users\Tim\Documents\LITEC\Lab2\lab2-func.c:255: lightLED(light[seq]);
      0002B2 E5*1A            [12] 1901 	mov	a,_seq
      0002B4 24r08            [12] 1902 	add	a,#_light
      0002B6 F9               [12] 1903 	mov	r1,a
      0002B7 87 82            [24] 1904 	mov	dpl,@r1
      0002B9 12r0Ar8E         [24] 1905 	lcall	_lightLED
                           0002BC  1906 	C$lab2_func.c$254$2$94 ==.
                                   1907 ;	C:\Users\Tim\Documents\LITEC\Lab2\lab2-func.c:254: for(rep = 1; rep <= times[seq]; rep++)
      0002BC 05*1B            [12] 1908 	inc	_rep
      0002BE 80 E5            [24] 1909 	sjmp	00131$
      0002C0                       1910 00136$:
                           0002C0  1911 	C$lab2_func.c$253$2$94 ==.
                                   1912 ;	C:\Users\Tim\Documents\LITEC\Lab2\lab2-func.c:253: for(seq = 0; seq < i || seq == i; seq++)
      0002C0 05*1A            [12] 1913 	inc	_seq
      0002C2 80 D2            [24] 1914 	sjmp	00135$
      0002C4                       1915 00103$:
                           0002C4  1916 	C$lab2_func.c$256$2$94 ==.
                                   1917 ;	C:\Users\Tim\Documents\LITEC\Lab2\lab2-func.c:256: theBuzz();//time to make selection	
      0002C4 12r0Ar65         [24] 1918 	lcall	_theBuzz
                           0002C7  1919 	C$lab2_func.c$259$2$94 ==.
                                   1920 ;	C:\Users\Tim\Documents\LITEC\Lab2\lab2-func.c:259: Counts = 0;
      0002C7 E4               [12] 1921 	clr	a
      0002C8 F5*00            [12] 1922 	mov	_Counts,a
      0002CA F5*01            [12] 1923 	mov	(_Counts + 1),a
                           0002CC  1924 	C$lab2_func.c$260$2$94 ==.
                                   1925 ;	C:\Users\Tim\Documents\LITEC\Lab2\lab2-func.c:260: TMR0 = 0;
      0002CC F5 8A            [12] 1926 	mov	((_TMR0 >> 0) & 0xFF),a
      0002CE F5 8C            [12] 1927 	mov	((_TMR0 >> 8) & 0xFF),a
                           0002D0  1928 	C$lab2_func.c$261$2$94 ==.
                                   1929 ;	C:\Users\Tim\Documents\LITEC\Lab2\lab2-func.c:261: TR0 = 1;
      0002D0 D2 8C            [12] 1930 	setb	_TR0
                           0002D2  1931 	C$lab2_func.c$264$2$94 ==.
                                   1932 ;	C:\Users\Tim\Documents\LITEC\Lab2\lab2-func.c:264: for(seq = 0; seq < i || seq == i; seq++)
      0002D2 75*1A 00         [24] 1933 	mov	_seq,#0x00
      0002D5                       1934 00142$:
      0002D5 C3               [12] 1935 	clr	c
      0002D6 E5*1A            [12] 1936 	mov	a,_seq
      0002D8 95*05            [12] 1937 	subb	a,_i
      0002DA 40 0A            [24] 1938 	jc	00141$
      0002DC E5*05            [12] 1939 	mov	a,_i
      0002DE B5*1A 02         [24] 1940 	cjne	a,_seq,00217$
      0002E1 80 03            [24] 1941 	sjmp	00218$
      0002E3                       1942 00217$:
      0002E3 02r03r98         [24] 1943 	ljmp	00118$
      0002E6                       1944 00218$:
      0002E6                       1945 00141$:
                           0002E6  1946 	C$lab2_func.c$266$3$95 ==.
                                   1947 ;	C:\Users\Tim\Documents\LITEC\Lab2\lab2-func.c:266: for(rep = 1; rep <= times[seq]; rep++)
      0002E6 75*1B 01         [24] 1948 	mov	_rep,#0x01
      0002E9                       1949 00138$:
      0002E9 E5*1A            [12] 1950 	mov	a,_seq
      0002EB 24r10            [12] 1951 	add	a,#_times
      0002ED F9               [12] 1952 	mov	r1,a
      0002EE 87 07            [24] 1953 	mov	ar7,@r1
      0002F0 C3               [12] 1954 	clr	c
      0002F1 EF               [12] 1955 	mov	a,r7
      0002F2 95*1B            [12] 1956 	subb	a,_rep
      0002F4 50 03            [24] 1957 	jnc	00219$
      0002F6 02r03r85         [24] 1958 	ljmp	00114$
      0002F9                       1959 00219$:
                           0002F9  1960 	C$lab2_func.c$268$4$96 ==.
                                   1961 ;	C:\Users\Tim\Documents\LITEC\Lab2\lab2-func.c:268: do
      0002F9                       1962 00109$:
                           0002F9  1963 	C$lab2_func.c$270$5$97 ==.
                                   1964 ;	C:\Users\Tim\Documents\LITEC\Lab2\lab2-func.c:270: if(Counts > (i+1)*speed)
      0002F9 AE*05            [24] 1965 	mov	r6,_i
      0002FB 7F 00            [12] 1966 	mov	r7,#0x00
      0002FD 0E               [12] 1967 	inc	r6
      0002FE BE 00 01         [24] 1968 	cjne	r6,#0x00,00220$
      000301 0F               [12] 1969 	inc	r7
      000302                       1970 00220$:
      000302 8E 82            [24] 1971 	mov	dpl,r6
      000304 8F 83            [24] 1972 	mov	dph,r7
      000306 85*06*00         [24] 1973 	mov	__mulint_PARM_2,_speed
      000309 85*07*01         [24] 1974 	mov	(__mulint_PARM_2 + 1),(_speed + 1)
      00030C 12r00r00         [24] 1975 	lcall	__mulint
      00030F AE 82            [24] 1976 	mov	r6,dpl
      000311 AF 83            [24] 1977 	mov	r7,dph
      000313 C3               [12] 1978 	clr	c
      000314 EE               [12] 1979 	mov	a,r6
      000315 95*00            [12] 1980 	subb	a,_Counts
      000317 EF               [12] 1981 	mov	a,r7
      000318 95*01            [12] 1982 	subb	a,(_Counts + 1)
      00031A 50 17            [24] 1983 	jnc	00110$
                           00031C  1984 	C$lab2_func.c$272$6$98 ==.
                                   1985 ;	C:\Users\Tim\Documents\LITEC\Lab2\lab2-func.c:272: printf("TIME OUT \r\n");
      00031C 74rC4            [12] 1986 	mov	a,#___str_9
      00031E C0 E0            [24] 1987 	push	acc
      000320 74s01            [12] 1988 	mov	a,#(___str_9 >> 8)
      000322 C0 E0            [24] 1989 	push	acc
      000324 74 80            [12] 1990 	mov	a,#0x80
      000326 C0 E0            [24] 1991 	push	acc
      000328 12r00r00         [24] 1992 	lcall	_printf
      00032B 15 81            [12] 1993 	dec	sp
      00032D 15 81            [12] 1994 	dec	sp
      00032F 15 81            [12] 1995 	dec	sp
                           000331  1996 	C$lab2_func.c$273$6$98 ==.
                                   1997 ;	C:\Users\Tim\Documents\LITEC\Lab2\lab2-func.c:273: break; //out off all loop
      000331 80 0C            [24] 1998 	sjmp	00111$
      000333                       1999 00110$:
                           000333  2000 	C$lab2_func.c$276$4$96 ==.
                                   2001 ;	C:\Users\Tim\Documents\LITEC\Lab2\lab2-func.c:276: while(PB0 && PB1 && PB2 && PB3);//TTTTTTTTTTTTT
      000333 30 B2 09         [24] 2002 	jnb	_PB0,00111$
      000336 30 B4 06         [24] 2003 	jnb	_PB1,00111$
      000339 30 B3 03         [24] 2004 	jnb	_PB2,00111$
      00033C 20 B5 BA         [24] 2005 	jb	_PB3,00109$
      00033F                       2006 00111$:
                           00033F  2007 	C$lab2_func.c$277$4$96 ==.
                                   2008 ;	C:\Users\Tim\Documents\LITEC\Lab2\lab2-func.c:277: currLED = buttonPress();
      00033F 12r0Br7E         [24] 2009 	lcall	_buttonPress
      000342 85 82*1C         [24] 2010 	mov	_currLED,dpl
                           000345  2011 	C$lab2_func.c$278$4$96 ==.
                                   2012 ;	C:\Users\Tim\Documents\LITEC\Lab2\lab2-func.c:278: if(currLED != light[seq])
      000345 E5*1A            [12] 2013 	mov	a,_seq
      000347 24r08            [12] 2014 	add	a,#_light
      000349 F9               [12] 2015 	mov	r1,a
      00034A E7               [12] 2016 	mov	a,@r1
      00034B FF               [12] 2017 	mov	r7,a
      00034C B5*1C 02         [24] 2018 	cjne	a,_currLED,00226$
      00034F 80 2F            [24] 2019 	sjmp	00139$
      000351                       2020 00226$:
                           000351  2021 	C$lab2_func.c$280$5$99 ==.
                                   2022 ;	C:\Users\Tim\Documents\LITEC\Lab2\lab2-func.c:280: alive = 0;//you are dead
      000351 E4               [12] 2023 	clr	a
      000352 F5*18            [12] 2024 	mov	_alive,a
      000354 F5*19            [12] 2025 	mov	(_alive + 1),a
                           000356  2026 	C$lab2_func.c$281$5$99 ==.
                                   2027 ;	C:\Users\Tim\Documents\LITEC\Lab2\lab2-func.c:281: printf("GAME OVER, you pressed %u,and your score is %u \r\n",currLED, score);
      000356 AE*1C            [24] 2028 	mov	r6,_currLED
      000358 7F 00            [12] 2029 	mov	r7,#0x00
      00035A C0*02            [24] 2030 	push	_score
      00035C C0*03            [24] 2031 	push	(_score + 1)
      00035E C0 06            [24] 2032 	push	ar6
      000360 C0 07            [24] 2033 	push	ar7
      000362 74rD0            [12] 2034 	mov	a,#___str_10
      000364 C0 E0            [24] 2035 	push	acc
      000366 74s01            [12] 2036 	mov	a,#(___str_10 >> 8)
      000368 C0 E0            [24] 2037 	push	acc
      00036A 74 80            [12] 2038 	mov	a,#0x80
      00036C C0 E0            [24] 2039 	push	acc
      00036E 12r00r00         [24] 2040 	lcall	_printf
      000371 E5 81            [12] 2041 	mov	a,sp
      000373 24 F9            [12] 2042 	add	a,#0xf9
      000375 F5 81            [12] 2043 	mov	sp,a
                           000377  2044 	C$lab2_func.c$283$5$99 ==.
                                   2045 ;	C:\Users\Tim\Documents\LITEC\Lab2\lab2-func.c:283: BILED1 = 0;
      000377 C2 B7            [12] 2046 	clr	_BILED1
                           000379  2047 	C$lab2_func.c$284$5$99 ==.
                                   2048 ;	C:\Users\Tim\Documents\LITEC\Lab2\lab2-func.c:284: theBuzz();//TTTTTTTTTTTTT
      000379 12r0Ar65         [24] 2049 	lcall	_theBuzz
                           00037C  2050 	C$lab2_func.c$285$5$99 ==.
                                   2051 ;	C:\Users\Tim\Documents\LITEC\Lab2\lab2-func.c:285: BILED1 = 1;
      00037C D2 B7            [12] 2052 	setb	_BILED1
                           00037E  2053 	C$lab2_func.c$286$5$99 ==.
                                   2054 ;	C:\Users\Tim\Documents\LITEC\Lab2\lab2-func.c:286: break;
      00037E 80 05            [24] 2055 	sjmp	00114$
      000380                       2056 00139$:
                           000380  2057 	C$lab2_func.c$266$3$95 ==.
                                   2058 ;	C:\Users\Tim\Documents\LITEC\Lab2\lab2-func.c:266: for(rep = 1; rep <= times[seq]; rep++)
      000380 05*1B            [12] 2059 	inc	_rep
      000382 02r02rE9         [24] 2060 	ljmp	00138$
      000385                       2061 00114$:
                           000385  2062 	C$lab2_func.c$289$3$95 ==.
                                   2063 ;	C:\Users\Tim\Documents\LITEC\Lab2\lab2-func.c:289: if(alive)
      000385 E5*18            [12] 2064 	mov	a,_alive
      000387 45*19            [12] 2065 	orl	a,(_alive + 1)
      000389 60 0D            [24] 2066 	jz	00118$
                           00038B  2067 	C$lab2_func.c$290$3$95 ==.
                                   2068 ;	C:\Users\Tim\Documents\LITEC\Lab2\lab2-func.c:290: score++;
      00038B 05*02            [12] 2069 	inc	_score
      00038D E4               [12] 2070 	clr	a
      00038E B5*02 02         [24] 2071 	cjne	a,_score,00228$
      000391 05*03            [12] 2072 	inc	(_score + 1)
      000393                       2073 00228$:
                           000393  2074 	C$lab2_func.c$264$2$94 ==.
                                   2075 ;	C:\Users\Tim\Documents\LITEC\Lab2\lab2-func.c:264: for(seq = 0; seq < i || seq == i; seq++)
      000393 05*1A            [12] 2076 	inc	_seq
      000395 02r02rD5         [24] 2077 	ljmp	00142$
      000398                       2078 00118$:
                           000398  2079 	C$lab2_func.c$294$2$94 ==.
                                   2080 ;	C:\Users\Tim\Documents\LITEC\Lab2\lab2-func.c:294: if(!alive)
      000398 E5*18            [12] 2081 	mov	a,_alive
      00039A 45*19            [12] 2082 	orl	a,(_alive + 1)
      00039C 70 04            [24] 2083 	jnz	00123$
                           00039E  2084 	C$lab2_func.c$296$3$100 ==.
                                   2085 ;	C:\Users\Tim\Documents\LITEC\Lab2\lab2-func.c:296: TR0 = 0;
      00039E C2 8C            [12] 2086 	clr	_TR0
                           0003A0  2087 	C$lab2_func.c$297$3$100 ==.
                                   2088 ;	C:\Users\Tim\Documents\LITEC\Lab2\lab2-func.c:297: break;
      0003A0 80 3F            [24] 2089 	sjmp	00125$
      0003A2                       2090 00123$:
                           0003A2  2091 	C$lab2_func.c$301$3$101 ==.
                                   2092 ;	C:\Users\Tim\Documents\LITEC\Lab2\lab2-func.c:301: currCounts = Counts;
      0003A2 85*00*26         [24] 2093 	mov	_currCounts,_Counts
      0003A5 85*01*27         [24] 2094 	mov	(_currCounts + 1),(_Counts + 1)
                           0003A8  2095 	C$lab2_func.c$302$3$101 ==.
                                   2096 ;	C:\Users\Tim\Documents\LITEC\Lab2\lab2-func.c:302: BILED2 = 0;
      0003A8 C2 A1            [12] 2097 	clr	_BILED2
                           0003AA  2098 	C$lab2_func.c$303$3$101 ==.
                                   2099 ;	C:\Users\Tim\Documents\LITEC\Lab2\lab2-func.c:303: while(Counts < currCounts+337);//TTTTTTTTTTTTT
      0003AA                       2100 00119$:
      0003AA 74 51            [12] 2101 	mov	a,#0x51
      0003AC 25*26            [12] 2102 	add	a,_currCounts
      0003AE FE               [12] 2103 	mov	r6,a
      0003AF 74 01            [12] 2104 	mov	a,#0x01
      0003B1 35*27            [12] 2105 	addc	a,(_currCounts + 1)
      0003B3 FF               [12] 2106 	mov	r7,a
      0003B4 C3               [12] 2107 	clr	c
      0003B5 E5*00            [12] 2108 	mov	a,_Counts
      0003B7 9E               [12] 2109 	subb	a,r6
      0003B8 E5*01            [12] 2110 	mov	a,(_Counts + 1)
      0003BA 9F               [12] 2111 	subb	a,r7
      0003BB 40 ED            [24] 2112 	jc	00119$
                           0003BD  2113 	C$lab2_func.c$304$3$101 ==.
                                   2114 ;	C:\Users\Tim\Documents\LITEC\Lab2\lab2-func.c:304: BILED2 = 1;
      0003BD D2 A1            [12] 2115 	setb	_BILED2
                           0003BF  2116 	C$lab2_func.c$305$3$101 ==.
                                   2117 ;	C:\Users\Tim\Documents\LITEC\Lab2\lab2-func.c:305: printf("correct \r\n");
      0003BF 74r02            [12] 2118 	mov	a,#___str_11
      0003C1 C0 E0            [24] 2119 	push	acc
      0003C3 74s02            [12] 2120 	mov	a,#(___str_11 >> 8)
      0003C5 C0 E0            [24] 2121 	push	acc
      0003C7 74 80            [12] 2122 	mov	a,#0x80
      0003C9 C0 E0            [24] 2123 	push	acc
      0003CB 12r00r00         [24] 2124 	lcall	_printf
      0003CE 15 81            [12] 2125 	dec	sp
      0003D0 15 81            [12] 2126 	dec	sp
      0003D2 15 81            [12] 2127 	dec	sp
                           0003D4  2128 	C$lab2_func.c$308$2$94 ==.
                                   2129 ;	C:\Users\Tim\Documents\LITEC\Lab2\lab2-func.c:308: TR0 = 0;
      0003D4 C2 8C            [12] 2130 	clr	_TR0
                           0003D6  2131 	C$lab2_func.c$250$1$92 ==.
                                   2132 ;	C:\Users\Tim\Documents\LITEC\Lab2\lab2-func.c:250: for(i = 0; i < 8; i++) //8 sequence of the game
      0003D6 05*05            [12] 2133 	inc	_i
      0003D8 74 F8            [12] 2134 	mov	a,#0x100 - 0x08
      0003DA 25*05            [12] 2135 	add	a,_i
      0003DC 40 03            [24] 2136 	jc	00231$
      0003DE 02r02r93         [24] 2137 	ljmp	00144$
      0003E1                       2138 00231$:
      0003E1                       2139 00125$:
                           0003E1  2140 	C$lab2_func.c$311$1$92 ==.
                                   2141 ;	C:\Users\Tim\Documents\LITEC\Lab2\lab2-func.c:311: if(alive)
      0003E1 E5*18            [12] 2142 	mov	a,_alive
      0003E3 45*19            [12] 2143 	orl	a,(_alive + 1)
      0003E5 60 15            [24] 2144 	jz	00146$
                           0003E7  2145 	C$lab2_func.c$312$1$92 ==.
                                   2146 ;	C:\Users\Tim\Documents\LITEC\Lab2\lab2-func.c:312: printf("you successfully passed the game! \r\n");
      0003E7 74r0D            [12] 2147 	mov	a,#___str_12
      0003E9 C0 E0            [24] 2148 	push	acc
      0003EB 74s02            [12] 2149 	mov	a,#(___str_12 >> 8)
      0003ED C0 E0            [24] 2150 	push	acc
      0003EF 74 80            [12] 2151 	mov	a,#0x80
      0003F1 C0 E0            [24] 2152 	push	acc
      0003F3 12r00r00         [24] 2153 	lcall	_printf
      0003F6 15 81            [12] 2154 	dec	sp
      0003F8 15 81            [12] 2155 	dec	sp
      0003FA 15 81            [12] 2156 	dec	sp
      0003FC                       2157 00146$:
                           0003FC  2158 	C$lab2_func.c$314$1$92 ==.
                           0003FC  2159 	XG$mode1$0$0 ==.
      0003FC 22               [24] 2160 	ret
                                   2161 ;------------------------------------------------------------
                                   2162 ;Allocation info for local variables in function 'mode2'
                                   2163 ;------------------------------------------------------------
                           0003FD  2164 	G$mode2$0$0 ==.
                           0003FD  2165 	C$lab2_func.c$317$1$92 ==.
                                   2166 ;	C:\Users\Tim\Documents\LITEC\Lab2\lab2-func.c:317: void mode2(void)
                                   2167 ;	-----------------------------------------
                                   2168 ;	 function mode2
                                   2169 ;	-----------------------------------------
      0003FD                       2170 _mode2:
                           0003FD  2171 	C$lab2_func.c$319$1$103 ==.
                                   2172 ;	C:\Users\Tim\Documents\LITEC\Lab2\lab2-func.c:319: printf("\r Rule: \n");
      0003FD 74r32            [12] 2173 	mov	a,#___str_13
      0003FF C0 E0            [24] 2174 	push	acc
      000401 74s02            [12] 2175 	mov	a,#(___str_13 >> 8)
      000403 C0 E0            [24] 2176 	push	acc
      000405 74 80            [12] 2177 	mov	a,#0x80
      000407 C0 E0            [24] 2178 	push	acc
      000409 12r00r00         [24] 2179 	lcall	_printf
      00040C 15 81            [12] 2180 	dec	sp
      00040E 15 81            [12] 2181 	dec	sp
      000410 15 81            [12] 2182 	dec	sp
                           000412  2183 	C$lab2_func.c$320$1$103 ==.
                                   2184 ;	C:\Users\Tim\Documents\LITEC\Lab2\lab2-func.c:320: printf("\r Player 1 use pushbutton and potentiometer to create a sequence \n");
      000412 74r3C            [12] 2185 	mov	a,#___str_14
      000414 C0 E0            [24] 2186 	push	acc
      000416 74s02            [12] 2187 	mov	a,#(___str_14 >> 8)
      000418 C0 E0            [24] 2188 	push	acc
      00041A 74 80            [12] 2189 	mov	a,#0x80
      00041C C0 E0            [24] 2190 	push	acc
      00041E 12r00r00         [24] 2191 	lcall	_printf
      000421 15 81            [12] 2192 	dec	sp
      000423 15 81            [12] 2193 	dec	sp
      000425 15 81            [12] 2194 	dec	sp
                           000427  2195 	C$lab2_func.c$321$1$103 ==.
                                   2196 ;	C:\Users\Tim\Documents\LITEC\Lab2\lab2-func.c:321: printf("\r pushbutton indicate the LED and use potentiometer to adjust blinks \n");
      000427 74r7F            [12] 2197 	mov	a,#___str_15
      000429 C0 E0            [24] 2198 	push	acc
      00042B 74s02            [12] 2199 	mov	a,#(___str_15 >> 8)
      00042D C0 E0            [24] 2200 	push	acc
      00042F 74 80            [12] 2201 	mov	a,#0x80
      000431 C0 E0            [24] 2202 	push	acc
      000433 12r00r00         [24] 2203 	lcall	_printf
      000436 15 81            [12] 2204 	dec	sp
      000438 15 81            [12] 2205 	dec	sp
      00043A 15 81            [12] 2206 	dec	sp
                           00043C  2207 	C$lab2_func.c$322$1$103 ==.
                                   2208 ;	C:\Users\Tim\Documents\LITEC\Lab2\lab2-func.c:322: printf("\r then player2 play the game with preprogrammed sequence \n");
      00043C 74rC6            [12] 2209 	mov	a,#___str_16
      00043E C0 E0            [24] 2210 	push	acc
      000440 74s02            [12] 2211 	mov	a,#(___str_16 >> 8)
      000442 C0 E0            [24] 2212 	push	acc
      000444 74 80            [12] 2213 	mov	a,#0x80
      000446 C0 E0            [24] 2214 	push	acc
      000448 12r00r00         [24] 2215 	lcall	_printf
      00044B 15 81            [12] 2216 	dec	sp
      00044D 15 81            [12] 2217 	dec	sp
      00044F 15 81            [12] 2218 	dec	sp
                           000451  2219 	C$lab2_func.c$323$2$104 ==.
                                   2220 ;	C:\Users\Tim\Documents\LITEC\Lab2\lab2-func.c:323: while (1){
      000451                       2221 00172$:
                           000451  2222 	C$lab2_func.c$325$2$104 ==.
                                   2223 ;	C:\Users\Tim\Documents\LITEC\Lab2\lab2-func.c:325: Counts = 0;
      000451 E4               [12] 2224 	clr	a
      000452 F5*00            [12] 2225 	mov	_Counts,a
      000454 F5*01            [12] 2226 	mov	(_Counts + 1),a
                           000456  2227 	C$lab2_func.c$326$2$104 ==.
                                   2228 ;	C:\Users\Tim\Documents\LITEC\Lab2\lab2-func.c:326: clear();
      000456 12r01r58         [24] 2229 	lcall	_clear
                           000459  2230 	C$lab2_func.c$327$2$104 ==.
                                   2231 ;	C:\Users\Tim\Documents\LITEC\Lab2\lab2-func.c:327: printf("\r Push any button to start modification! \n");
      000459 74r01            [12] 2232 	mov	a,#___str_17
      00045B C0 E0            [24] 2233 	push	acc
      00045D 74s03            [12] 2234 	mov	a,#(___str_17 >> 8)
      00045F C0 E0            [24] 2235 	push	acc
      000461 74 80            [12] 2236 	mov	a,#0x80
      000463 C0 E0            [24] 2237 	push	acc
      000465 12r00r00         [24] 2238 	lcall	_printf
      000468 15 81            [12] 2239 	dec	sp
      00046A 15 81            [12] 2240 	dec	sp
      00046C 15 81            [12] 2241 	dec	sp
                           00046E  2242 	C$lab2_func.c$329$2$104 ==.
                                   2243 ;	C:\Users\Tim\Documents\LITEC\Lab2\lab2-func.c:329: if (!PB0 || !PB1 || !PB2 || !PB3) {
      00046E 30 B2 09         [24] 2244 	jnb	_PB0,00166$
      000471 30 B4 06         [24] 2245 	jnb	_PB1,00166$
      000474 30 B3 03         [24] 2246 	jnb	_PB2,00166$
      000477 20 B5 D7         [24] 2247 	jb	_PB3,00172$
      00047A                       2248 00166$:
                           00047A  2249 	C$lab2_func.c$330$3$105 ==.
                                   2250 ;	C:\Users\Tim\Documents\LITEC\Lab2\lab2-func.c:330: TR0 = 1;
      00047A D2 8C            [12] 2251 	setb	_TR0
                           00047C  2252 	C$lab2_func.c$331$3$105 ==.
                                   2253 ;	C:\Users\Tim\Documents\LITEC\Lab2\lab2-func.c:331: printf("\r Game start in 3 seconds \n");
      00047C 74r2C            [12] 2254 	mov	a,#___str_18
      00047E C0 E0            [24] 2255 	push	acc
      000480 74s03            [12] 2256 	mov	a,#(___str_18 >> 8)
      000482 C0 E0            [24] 2257 	push	acc
      000484 74 80            [12] 2258 	mov	a,#0x80
      000486 C0 E0            [24] 2259 	push	acc
      000488 12r00r00         [24] 2260 	lcall	_printf
      00048B 15 81            [12] 2261 	dec	sp
      00048D 15 81            [12] 2262 	dec	sp
      00048F 15 81            [12] 2263 	dec	sp
                           000491  2264 	C$lab2_func.c$332$3$105 ==.
                                   2265 ;	C:\Users\Tim\Documents\LITEC\Lab2\lab2-func.c:332: BUZZER = 0;
      000491 C2 B6            [12] 2266 	clr	_BUZZER
                           000493  2267 	C$lab2_func.c$333$3$105 ==.
                                   2268 ;	C:\Users\Tim\Documents\LITEC\Lab2\lab2-func.c:333: while (Counts < 1011);
      000493                       2269 00101$:
      000493 C3               [12] 2270 	clr	c
      000494 E5*00            [12] 2271 	mov	a,_Counts
      000496 94 F3            [12] 2272 	subb	a,#0xf3
      000498 E5*01            [12] 2273 	mov	a,(_Counts + 1)
      00049A 94 03            [12] 2274 	subb	a,#0x03
      00049C 40 F5            [24] 2275 	jc	00101$
                           00049E  2276 	C$lab2_func.c$334$3$105 ==.
                                   2277 ;	C:\Users\Tim\Documents\LITEC\Lab2\lab2-func.c:334: BUZZER = 1;
      00049E D2 B6            [12] 2278 	setb	_BUZZER
                           0004A0  2279 	C$lab2_func.c$335$3$105 ==.
                                   2280 ;	C:\Users\Tim\Documents\LITEC\Lab2\lab2-func.c:335: printf("\r game start \n");
      0004A0 74r48            [12] 2281 	mov	a,#___str_19
      0004A2 C0 E0            [24] 2282 	push	acc
      0004A4 74s03            [12] 2283 	mov	a,#(___str_19 >> 8)
      0004A6 C0 E0            [24] 2284 	push	acc
      0004A8 74 80            [12] 2285 	mov	a,#0x80
      0004AA C0 E0            [24] 2286 	push	acc
      0004AC 12r00r00         [24] 2287 	lcall	_printf
      0004AF 15 81            [12] 2288 	dec	sp
      0004B1 15 81            [12] 2289 	dec	sp
      0004B3 15 81            [12] 2290 	dec	sp
                           0004B5  2291 	C$lab2_func.c$336$3$105 ==.
                                   2292 ;	C:\Users\Tim\Documents\LITEC\Lab2\lab2-func.c:336: Counts = 0;
      0004B5 E4               [12] 2293 	clr	a
      0004B6 F5*00            [12] 2294 	mov	_Counts,a
      0004B8 F5*01            [12] 2295 	mov	(_Counts + 1),a
                           0004BA  2296 	C$lab2_func.c$337$3$105 ==.
                                   2297 ;	C:\Users\Tim\Documents\LITEC\Lab2\lab2-func.c:337: printf("\r Player1's turn \n");
      0004BA 74r57            [12] 2298 	mov	a,#___str_20
      0004BC C0 E0            [24] 2299 	push	acc
      0004BE 74s03            [12] 2300 	mov	a,#(___str_20 >> 8)
      0004C0 C0 E0            [24] 2301 	push	acc
      0004C2 74 80            [12] 2302 	mov	a,#0x80
      0004C4 C0 E0            [24] 2303 	push	acc
      0004C6 12r00r00         [24] 2304 	lcall	_printf
      0004C9 15 81            [12] 2305 	dec	sp
      0004CB 15 81            [12] 2306 	dec	sp
      0004CD 15 81            [12] 2307 	dec	sp
                           0004CF  2308 	C$lab2_func.c$339$3$105 ==.
                                   2309 ;	C:\Users\Tim\Documents\LITEC\Lab2\lab2-func.c:339: for (i = 0; i < 8; i++) {
      0004CF 75*05 00         [24] 2310 	mov	_i,#0x00
      0004D2                       2311 00178$:
                           0004D2  2312 	C$lab2_func.c$340$4$106 ==.
                                   2313 ;	C:\Users\Tim\Documents\LITEC\Lab2\lab2-func.c:340: adc = read_AD_input(4);
      0004D2 75 82 04         [24] 2314 	mov	dpl,#0x04
      0004D5 12r00rFD         [24] 2315 	lcall	_read_AD_input
      0004D8 85 82*1D         [24] 2316 	mov	_adc,dpl
                           0004DB  2317 	C$lab2_func.c$341$4$106 ==.
                                   2318 ;	C:\Users\Tim\Documents\LITEC\Lab2\lab2-func.c:341: printf("\r Sequence %u \n", i);
      0004DB AE*05            [24] 2319 	mov	r6,_i
      0004DD 7F 00            [12] 2320 	mov	r7,#0x00
      0004DF C0 06            [24] 2321 	push	ar6
      0004E1 C0 07            [24] 2322 	push	ar7
      0004E3 74r6A            [12] 2323 	mov	a,#___str_21
      0004E5 C0 E0            [24] 2324 	push	acc
      0004E7 74s03            [12] 2325 	mov	a,#(___str_21 >> 8)
      0004E9 C0 E0            [24] 2326 	push	acc
      0004EB 74 80            [12] 2327 	mov	a,#0x80
      0004ED C0 E0            [24] 2328 	push	acc
      0004EF 12r00r00         [24] 2329 	lcall	_printf
      0004F2 E5 81            [12] 2330 	mov	a,sp
      0004F4 24 FB            [12] 2331 	add	a,#0xfb
      0004F6 F5 81            [12] 2332 	mov	sp,a
                           0004F8  2333 	C$lab2_func.c$342$4$106 ==.
                                   2334 ;	C:\Users\Tim\Documents\LITEC\Lab2\lab2-func.c:342: while (PB0 && PB1 && PB2 && PB3);
      0004F8                       2335 00107$:
      0004F8 30 B2 09         [24] 2336 	jnb	_PB0,00109$
      0004FB 30 B4 06         [24] 2337 	jnb	_PB1,00109$
      0004FE 30 B3 03         [24] 2338 	jnb	_PB2,00109$
      000501 20 B5 F4         [24] 2339 	jb	_PB3,00107$
      000504                       2340 00109$:
                           000504  2341 	C$lab2_func.c$343$4$106 ==.
                                   2342 ;	C:\Users\Tim\Documents\LITEC\Lab2\lab2-func.c:343: if (!PB0) {
      000504 20 B2 05         [24] 2343 	jb	_PB0,00119$
                           000507  2344 	C$lab2_func.c$344$5$107 ==.
                                   2345 ;	C:\Users\Tim\Documents\LITEC\Lab2\lab2-func.c:344: whichLED = 0;
      000507 75*1E 00         [24] 2346 	mov	_whichLED,#0x00
      00050A 80 16            [24] 2347 	sjmp	00120$
      00050C                       2348 00119$:
                           00050C  2349 	C$lab2_func.c$346$4$106 ==.
                                   2350 ;	C:\Users\Tim\Documents\LITEC\Lab2\lab2-func.c:346: else if (!PB1) {
      00050C 20 B4 05         [24] 2351 	jb	_PB1,00116$
                           00050F  2352 	C$lab2_func.c$347$5$108 ==.
                                   2353 ;	C:\Users\Tim\Documents\LITEC\Lab2\lab2-func.c:347: whichLED = 1;
      00050F 75*1E 01         [24] 2354 	mov	_whichLED,#0x01
      000512 80 0E            [24] 2355 	sjmp	00120$
      000514                       2356 00116$:
                           000514  2357 	C$lab2_func.c$349$4$106 ==.
                                   2358 ;	C:\Users\Tim\Documents\LITEC\Lab2\lab2-func.c:349: else if (!PB2) {
      000514 20 B3 05         [24] 2359 	jb	_PB2,00113$
                           000517  2360 	C$lab2_func.c$350$5$109 ==.
                                   2361 ;	C:\Users\Tim\Documents\LITEC\Lab2\lab2-func.c:350: whichLED = 2;
      000517 75*1E 02         [24] 2362 	mov	_whichLED,#0x02
      00051A 80 06            [24] 2363 	sjmp	00120$
      00051C                       2364 00113$:
                           00051C  2365 	C$lab2_func.c$352$4$106 ==.
                                   2366 ;	C:\Users\Tim\Documents\LITEC\Lab2\lab2-func.c:352: else if (!PB3) {
      00051C 20 B5 03         [24] 2367 	jb	_PB3,00120$
                           00051F  2368 	C$lab2_func.c$353$5$110 ==.
                                   2369 ;	C:\Users\Tim\Documents\LITEC\Lab2\lab2-func.c:353: whichLED = 3;
      00051F 75*1E 03         [24] 2370 	mov	_whichLED,#0x03
      000522                       2371 00120$:
                           000522  2372 	C$lab2_func.c$355$4$106 ==.
                                   2373 ;	C:\Users\Tim\Documents\LITEC\Lab2\lab2-func.c:355: printf("\r LED %u \n", whichLED);
      000522 AE*1E            [24] 2374 	mov	r6,_whichLED
      000524 7F 00            [12] 2375 	mov	r7,#0x00
      000526 C0 06            [24] 2376 	push	ar6
      000528 C0 07            [24] 2377 	push	ar7
      00052A 74r7A            [12] 2378 	mov	a,#___str_22
      00052C C0 E0            [24] 2379 	push	acc
      00052E 74s03            [12] 2380 	mov	a,#(___str_22 >> 8)
      000530 C0 E0            [24] 2381 	push	acc
      000532 74 80            [12] 2382 	mov	a,#0x80
      000534 C0 E0            [24] 2383 	push	acc
      000536 12r00r00         [24] 2384 	lcall	_printf
      000539 E5 81            [12] 2385 	mov	a,sp
      00053B 24 FB            [12] 2386 	add	a,#0xfb
      00053D F5 81            [12] 2387 	mov	sp,a
                           00053F  2388 	C$lab2_func.c$357$4$106 ==.
                                   2389 ;	C:\Users\Tim\Documents\LITEC\Lab2\lab2-func.c:357: if (whichLED == 0) {
      00053F E5*1E            [12] 2390 	mov	a,_whichLED
                           000541  2391 	C$lab2_func.c$358$5$111 ==.
                                   2392 ;	C:\Users\Tim\Documents\LITEC\Lab2\lab2-func.c:358: Counts = 0;
      000541 70 15            [24] 2393 	jnz	00142$
      000543 F5*00            [12] 2394 	mov	_Counts,a
      000545 F5*01            [12] 2395 	mov	(_Counts + 1),a
                           000547  2396 	C$lab2_func.c$359$5$111 ==.
                                   2397 ;	C:\Users\Tim\Documents\LITEC\Lab2\lab2-func.c:359: LED0 = 0;
      000547 C2 A0            [12] 2398 	clr	_LED0
                           000549  2399 	C$lab2_func.c$360$5$111 ==.
                                   2400 ;	C:\Users\Tim\Documents\LITEC\Lab2\lab2-func.c:360: while (Counts < 337);
      000549                       2401 00121$:
      000549 C3               [12] 2402 	clr	c
      00054A E5*00            [12] 2403 	mov	a,_Counts
      00054C 94 51            [12] 2404 	subb	a,#0x51
      00054E E5*01            [12] 2405 	mov	a,(_Counts + 1)
      000550 94 01            [12] 2406 	subb	a,#0x01
      000552 40 F5            [24] 2407 	jc	00121$
                           000554  2408 	C$lab2_func.c$361$5$111 ==.
                                   2409 ;	C:\Users\Tim\Documents\LITEC\Lab2\lab2-func.c:361: LED0 = 1;
      000554 D2 A0            [12] 2410 	setb	_LED0
      000556 80 4F            [24] 2411 	sjmp	00143$
      000558                       2412 00142$:
                           000558  2413 	C$lab2_func.c$363$4$106 ==.
                                   2414 ;	C:\Users\Tim\Documents\LITEC\Lab2\lab2-func.c:363: else if (whichLED == 1) {
      000558 74 01            [12] 2415 	mov	a,#0x01
      00055A B5*1E 16         [24] 2416 	cjne	a,_whichLED,00139$
                           00055D  2417 	C$lab2_func.c$364$5$112 ==.
                                   2418 ;	C:\Users\Tim\Documents\LITEC\Lab2\lab2-func.c:364: Counts = 0;
      00055D E4               [12] 2419 	clr	a
      00055E F5*00            [12] 2420 	mov	_Counts,a
      000560 F5*01            [12] 2421 	mov	(_Counts + 1),a
                           000562  2422 	C$lab2_func.c$365$5$112 ==.
                                   2423 ;	C:\Users\Tim\Documents\LITEC\Lab2\lab2-func.c:365: LED1 = 0;
      000562 C2 A2            [12] 2424 	clr	_LED1
                           000564  2425 	C$lab2_func.c$366$5$112 ==.
                                   2426 ;	C:\Users\Tim\Documents\LITEC\Lab2\lab2-func.c:366: while (Counts < 337);
      000564                       2427 00124$:
      000564 C3               [12] 2428 	clr	c
      000565 E5*00            [12] 2429 	mov	a,_Counts
      000567 94 51            [12] 2430 	subb	a,#0x51
      000569 E5*01            [12] 2431 	mov	a,(_Counts + 1)
      00056B 94 01            [12] 2432 	subb	a,#0x01
      00056D 40 F5            [24] 2433 	jc	00124$
                           00056F  2434 	C$lab2_func.c$367$5$112 ==.
                                   2435 ;	C:\Users\Tim\Documents\LITEC\Lab2\lab2-func.c:367: LED1 = 1;
      00056F D2 A2            [12] 2436 	setb	_LED1
      000571 80 34            [24] 2437 	sjmp	00143$
      000573                       2438 00139$:
                           000573  2439 	C$lab2_func.c$369$4$106 ==.
                                   2440 ;	C:\Users\Tim\Documents\LITEC\Lab2\lab2-func.c:369: else if (whichLED == 2) {
      000573 74 02            [12] 2441 	mov	a,#0x02
      000575 B5*1E 16         [24] 2442 	cjne	a,_whichLED,00136$
                           000578  2443 	C$lab2_func.c$370$5$113 ==.
                                   2444 ;	C:\Users\Tim\Documents\LITEC\Lab2\lab2-func.c:370: Counts = 0;
      000578 E4               [12] 2445 	clr	a
      000579 F5*00            [12] 2446 	mov	_Counts,a
      00057B F5*01            [12] 2447 	mov	(_Counts + 1),a
                           00057D  2448 	C$lab2_func.c$371$5$113 ==.
                                   2449 ;	C:\Users\Tim\Documents\LITEC\Lab2\lab2-func.c:371: LED2 = 0;
      00057D C2 A3            [12] 2450 	clr	_LED2
                           00057F  2451 	C$lab2_func.c$372$5$113 ==.
                                   2452 ;	C:\Users\Tim\Documents\LITEC\Lab2\lab2-func.c:372: while (Counts < 337);
      00057F                       2453 00127$:
      00057F C3               [12] 2454 	clr	c
      000580 E5*00            [12] 2455 	mov	a,_Counts
      000582 94 51            [12] 2456 	subb	a,#0x51
      000584 E5*01            [12] 2457 	mov	a,(_Counts + 1)
      000586 94 01            [12] 2458 	subb	a,#0x01
      000588 40 F5            [24] 2459 	jc	00127$
                           00058A  2460 	C$lab2_func.c$373$5$113 ==.
                                   2461 ;	C:\Users\Tim\Documents\LITEC\Lab2\lab2-func.c:373: LED2 = 1;
      00058A D2 A3            [12] 2462 	setb	_LED2
      00058C 80 19            [24] 2463 	sjmp	00143$
      00058E                       2464 00136$:
                           00058E  2465 	C$lab2_func.c$375$4$106 ==.
                                   2466 ;	C:\Users\Tim\Documents\LITEC\Lab2\lab2-func.c:375: else if (whichLED == 3) {
      00058E 74 03            [12] 2467 	mov	a,#0x03
      000590 B5*1E 14         [24] 2468 	cjne	a,_whichLED,00143$
                           000593  2469 	C$lab2_func.c$376$5$114 ==.
                                   2470 ;	C:\Users\Tim\Documents\LITEC\Lab2\lab2-func.c:376: Counts = 0;
      000593 E4               [12] 2471 	clr	a
      000594 F5*00            [12] 2472 	mov	_Counts,a
      000596 F5*01            [12] 2473 	mov	(_Counts + 1),a
                           000598  2474 	C$lab2_func.c$377$5$114 ==.
                                   2475 ;	C:\Users\Tim\Documents\LITEC\Lab2\lab2-func.c:377: LED3 = 0;
      000598 C2 A5            [12] 2476 	clr	_LED3
                           00059A  2477 	C$lab2_func.c$378$5$114 ==.
                                   2478 ;	C:\Users\Tim\Documents\LITEC\Lab2\lab2-func.c:378: while (Counts < 337);
      00059A                       2479 00130$:
      00059A C3               [12] 2480 	clr	c
      00059B E5*00            [12] 2481 	mov	a,_Counts
      00059D 94 51            [12] 2482 	subb	a,#0x51
      00059F E5*01            [12] 2483 	mov	a,(_Counts + 1)
      0005A1 94 01            [12] 2484 	subb	a,#0x01
      0005A3 40 F5            [24] 2485 	jc	00130$
                           0005A5  2486 	C$lab2_func.c$379$5$114 ==.
                                   2487 ;	C:\Users\Tim\Documents\LITEC\Lab2\lab2-func.c:379: LED3 = 1;
      0005A5 D2 A5            [12] 2488 	setb	_LED3
      0005A7                       2489 00143$:
                           0005A7  2490 	C$lab2_func.c$381$4$106 ==.
                                   2491 ;	C:\Users\Tim\Documents\LITEC\Lab2\lab2-func.c:381: Counts = 0;
      0005A7 E4               [12] 2492 	clr	a
      0005A8 F5*00            [12] 2493 	mov	_Counts,a
      0005AA F5*01            [12] 2494 	mov	(_Counts + 1),a
                           0005AC  2495 	C$lab2_func.c$382$4$106 ==.
                                   2496 ;	C:\Users\Tim\Documents\LITEC\Lab2\lab2-func.c:382: while (Counts < 337 * 2);
      0005AC                       2497 00144$:
      0005AC C3               [12] 2498 	clr	c
      0005AD E5*00            [12] 2499 	mov	a,_Counts
      0005AF 94 A2            [12] 2500 	subb	a,#0xa2
      0005B1 E5*01            [12] 2501 	mov	a,(_Counts + 1)
      0005B3 94 02            [12] 2502 	subb	a,#0x02
      0005B5 40 F5            [24] 2503 	jc	00144$
                           0005B7  2504 	C$lab2_func.c$383$4$106 ==.
                                   2505 ;	C:\Users\Tim\Documents\LITEC\Lab2\lab2-func.c:383: if (adc < 85) {
      0005B7 74 AB            [12] 2506 	mov	a,#0x100 - 0x55
      0005B9 25*1D            [12] 2507 	add	a,_adc
      0005BB 40 07            [24] 2508 	jc	00154$
                           0005BD  2509 	C$lab2_func.c$384$5$115 ==.
                                   2510 ;	C:\Users\Tim\Documents\LITEC\Lab2\lab2-func.c:384: blink = 1;
      0005BD 75*1F 01         [24] 2511 	mov	_blink,#0x01
                           0005C0  2512 	C$lab2_func.c$385$5$115 ==.
                                   2513 ;	C:\Users\Tim\Documents\LITEC\Lab2\lab2-func.c:385: LED0 = 0;
      0005C0 C2 A0            [12] 2514 	clr	_LED0
      0005C2 80 24            [24] 2515 	sjmp	00155$
      0005C4                       2516 00154$:
                           0005C4  2517 	C$lab2_func.c$387$4$106 ==.
                                   2518 ;	C:\Users\Tim\Documents\LITEC\Lab2\lab2-func.c:387: else if (adc > 85 && adc < 170) {
      0005C4 E5*1D            [12] 2519 	mov	a,_adc
      0005C6 24 AA            [12] 2520 	add	a,#0xff - 0x55
      0005C8 50 0F            [24] 2521 	jnc	00150$
      0005CA 74 56            [12] 2522 	mov	a,#0x100 - 0xaa
      0005CC 25*1D            [12] 2523 	add	a,_adc
      0005CE 40 09            [24] 2524 	jc	00150$
                           0005D0  2525 	C$lab2_func.c$388$5$116 ==.
                                   2526 ;	C:\Users\Tim\Documents\LITEC\Lab2\lab2-func.c:388: blink = 2;
      0005D0 75*1F 02         [24] 2527 	mov	_blink,#0x02
                           0005D3  2528 	C$lab2_func.c$389$5$116 ==.
                                   2529 ;	C:\Users\Tim\Documents\LITEC\Lab2\lab2-func.c:389: LED0 = 0;
      0005D3 C2 A0            [12] 2530 	clr	_LED0
                           0005D5  2531 	C$lab2_func.c$390$5$116 ==.
                                   2532 ;	C:\Users\Tim\Documents\LITEC\Lab2\lab2-func.c:390: LED1 = 0;
      0005D5 C2 A2            [12] 2533 	clr	_LED1
      0005D7 80 0F            [24] 2534 	sjmp	00155$
      0005D9                       2535 00150$:
                           0005D9  2536 	C$lab2_func.c$392$4$106 ==.
                                   2537 ;	C:\Users\Tim\Documents\LITEC\Lab2\lab2-func.c:392: else if (adc > 170) {
      0005D9 E5*1D            [12] 2538 	mov	a,_adc
      0005DB 24 55            [12] 2539 	add	a,#0xff - 0xaa
      0005DD 50 09            [24] 2540 	jnc	00155$
                           0005DF  2541 	C$lab2_func.c$393$5$117 ==.
                                   2542 ;	C:\Users\Tim\Documents\LITEC\Lab2\lab2-func.c:393: blink = 3;
      0005DF 75*1F 03         [24] 2543 	mov	_blink,#0x03
                           0005E2  2544 	C$lab2_func.c$394$5$117 ==.
                                   2545 ;	C:\Users\Tim\Documents\LITEC\Lab2\lab2-func.c:394: LED0 = 0;
      0005E2 C2 A0            [12] 2546 	clr	_LED0
                           0005E4  2547 	C$lab2_func.c$395$5$117 ==.
                                   2548 ;	C:\Users\Tim\Documents\LITEC\Lab2\lab2-func.c:395: LED1 = 0;
      0005E4 C2 A2            [12] 2549 	clr	_LED1
                           0005E6  2550 	C$lab2_func.c$396$5$117 ==.
                                   2551 ;	C:\Users\Tim\Documents\LITEC\Lab2\lab2-func.c:396: LED2 = 0;
      0005E6 C2 A3            [12] 2552 	clr	_LED2
      0005E8                       2553 00155$:
                           0005E8  2554 	C$lab2_func.c$399$4$106 ==.
                                   2555 ;	C:\Users\Tim\Documents\LITEC\Lab2\lab2-func.c:399: Counts = 0;
      0005E8 E4               [12] 2556 	clr	a
      0005E9 F5*00            [12] 2557 	mov	_Counts,a
      0005EB F5*01            [12] 2558 	mov	(_Counts + 1),a
                           0005ED  2559 	C$lab2_func.c$400$4$106 ==.
                                   2560 ;	C:\Users\Tim\Documents\LITEC\Lab2\lab2-func.c:400: printf("\r next sequence start in 2 seconds\n");
      0005ED 74r85            [12] 2561 	mov	a,#___str_23
      0005EF C0 E0            [24] 2562 	push	acc
      0005F1 74s03            [12] 2563 	mov	a,#(___str_23 >> 8)
      0005F3 C0 E0            [24] 2564 	push	acc
      0005F5 74 80            [12] 2565 	mov	a,#0x80
      0005F7 C0 E0            [24] 2566 	push	acc
      0005F9 12r00r00         [24] 2567 	lcall	_printf
      0005FC 15 81            [12] 2568 	dec	sp
      0005FE 15 81            [12] 2569 	dec	sp
      000600 15 81            [12] 2570 	dec	sp
                           000602  2571 	C$lab2_func.c$401$4$106 ==.
                                   2572 ;	C:\Users\Tim\Documents\LITEC\Lab2\lab2-func.c:401: while (Counts < 337 * 2);
      000602                       2573 00156$:
      000602 C3               [12] 2574 	clr	c
      000603 E5*00            [12] 2575 	mov	a,_Counts
      000605 94 A2            [12] 2576 	subb	a,#0xa2
      000607 E5*01            [12] 2577 	mov	a,(_Counts + 1)
      000609 94 02            [12] 2578 	subb	a,#0x02
      00060B 40 F5            [24] 2579 	jc	00156$
                           00060D  2580 	C$lab2_func.c$402$4$106 ==.
                                   2581 ;	C:\Users\Tim\Documents\LITEC\Lab2\lab2-func.c:402: Counts = 0;
      00060D E4               [12] 2582 	clr	a
      00060E F5*00            [12] 2583 	mov	_Counts,a
      000610 F5*01            [12] 2584 	mov	(_Counts + 1),a
                           000612  2585 	C$lab2_func.c$403$4$106 ==.
                                   2586 ;	C:\Users\Tim\Documents\LITEC\Lab2\lab2-func.c:403: light[i] = whichLED;
      000612 E5*05            [12] 2587 	mov	a,_i
      000614 24r08            [12] 2588 	add	a,#_light
      000616 F8               [12] 2589 	mov	r0,a
      000617 A6*1E            [24] 2590 	mov	@r0,_whichLED
                           000619  2591 	C$lab2_func.c$404$4$106 ==.
                                   2592 ;	C:\Users\Tim\Documents\LITEC\Lab2\lab2-func.c:404: times[i] = blink;
      000619 E5*05            [12] 2593 	mov	a,_i
      00061B 24r10            [12] 2594 	add	a,#_times
      00061D F8               [12] 2595 	mov	r0,a
      00061E A6*1F            [24] 2596 	mov	@r0,_blink
                           000620  2597 	C$lab2_func.c$405$4$106 ==.
                                   2598 ;	C:\Users\Tim\Documents\LITEC\Lab2\lab2-func.c:405: clear();
      000620 12r01r58         [24] 2599 	lcall	_clear
                           000623  2600 	C$lab2_func.c$406$4$106 ==.
                                   2601 ;	C:\Users\Tim\Documents\LITEC\Lab2\lab2-func.c:406: while (Counts < 337 / 2);
      000623                       2602 00159$:
      000623 C3               [12] 2603 	clr	c
      000624 E5*00            [12] 2604 	mov	a,_Counts
      000626 94 A8            [12] 2605 	subb	a,#0xa8
      000628 E5*01            [12] 2606 	mov	a,(_Counts + 1)
      00062A 94 00            [12] 2607 	subb	a,#0x00
      00062C 40 F5            [24] 2608 	jc	00159$
                           00062E  2609 	C$lab2_func.c$339$3$105 ==.
                                   2610 ;	C:\Users\Tim\Documents\LITEC\Lab2\lab2-func.c:339: for (i = 0; i < 8; i++) {
      00062E 05*05            [12] 2611 	inc	_i
      000630 74 F8            [12] 2612 	mov	a,#0x100 - 0x08
      000632 25*05            [12] 2613 	add	a,_i
      000634 40 03            [24] 2614 	jc	00347$
      000636 02r04rD2         [24] 2615 	ljmp	00178$
      000639                       2616 00347$:
                           000639  2617 	C$lab2_func.c$408$3$105 ==.
                                   2618 ;	C:\Users\Tim\Documents\LITEC\Lab2\lab2-func.c:408: Counts = 0;
      000639 E4               [12] 2619 	clr	a
      00063A F5*00            [12] 2620 	mov	_Counts,a
      00063C F5*01            [12] 2621 	mov	(_Counts + 1),a
                           00063E  2622 	C$lab2_func.c$409$3$105 ==.
                                   2623 ;	C:\Users\Tim\Documents\LITEC\Lab2\lab2-func.c:409: LED0 = 0;
      00063E C2 A0            [12] 2624 	clr	_LED0
                           000640  2625 	C$lab2_func.c$410$3$105 ==.
                                   2626 ;	C:\Users\Tim\Documents\LITEC\Lab2\lab2-func.c:410: LED1 = 0;
      000640 C2 A2            [12] 2627 	clr	_LED1
                           000642  2628 	C$lab2_func.c$411$3$105 ==.
                                   2629 ;	C:\Users\Tim\Documents\LITEC\Lab2\lab2-func.c:411: LED2 = 0;
      000642 C2 A3            [12] 2630 	clr	_LED2
                           000644  2631 	C$lab2_func.c$412$3$105 ==.
                                   2632 ;	C:\Users\Tim\Documents\LITEC\Lab2\lab2-func.c:412: LED3 = 0;
      000644 C2 A5            [12] 2633 	clr	_LED3
                           000646  2634 	C$lab2_func.c$413$3$105 ==.
                                   2635 ;	C:\Users\Tim\Documents\LITEC\Lab2\lab2-func.c:413: while (Counts < 337);
      000646                       2636 00163$:
      000646 C3               [12] 2637 	clr	c
      000647 E5*00            [12] 2638 	mov	a,_Counts
      000649 94 51            [12] 2639 	subb	a,#0x51
      00064B E5*01            [12] 2640 	mov	a,(_Counts + 1)
      00064D 94 01            [12] 2641 	subb	a,#0x01
      00064F 40 F5            [24] 2642 	jc	00163$
                           000651  2643 	C$lab2_func.c$414$3$105 ==.
                                   2644 ;	C:\Users\Tim\Documents\LITEC\Lab2\lab2-func.c:414: clear();
      000651 12r01r58         [24] 2645 	lcall	_clear
                           000654  2646 	C$lab2_func.c$419$1$103 ==.
                                   2647 ;	C:\Users\Tim\Documents\LITEC\Lab2\lab2-func.c:419: for (i = 0; i < 8; i++) {
      000654 75*05 00         [24] 2648 	mov	_i,#0x00
      000657                       2649 00180$:
                           000657  2650 	C$lab2_func.c$420$2$118 ==.
                                   2651 ;	C:\Users\Tim\Documents\LITEC\Lab2\lab2-func.c:420: printf("%u|%u \r\n", light[i], times[i]);
      000657 E5*05            [12] 2652 	mov	a,_i
      000659 24r10            [12] 2653 	add	a,#_times
      00065B F9               [12] 2654 	mov	r1,a
      00065C 87 07            [24] 2655 	mov	ar7,@r1
      00065E 7E 00            [12] 2656 	mov	r6,#0x00
      000660 E5*05            [12] 2657 	mov	a,_i
      000662 24r08            [12] 2658 	add	a,#_light
      000664 F9               [12] 2659 	mov	r1,a
      000665 87 05            [24] 2660 	mov	ar5,@r1
      000667 7C 00            [12] 2661 	mov	r4,#0x00
      000669 C0 07            [24] 2662 	push	ar7
      00066B C0 06            [24] 2663 	push	ar6
      00066D C0 05            [24] 2664 	push	ar5
      00066F C0 04            [24] 2665 	push	ar4
      000671 74rBB            [12] 2666 	mov	a,#___str_8
      000673 C0 E0            [24] 2667 	push	acc
      000675 74s01            [12] 2668 	mov	a,#(___str_8 >> 8)
      000677 C0 E0            [24] 2669 	push	acc
      000679 74 80            [12] 2670 	mov	a,#0x80
      00067B C0 E0            [24] 2671 	push	acc
      00067D 12r00r00         [24] 2672 	lcall	_printf
      000680 E5 81            [12] 2673 	mov	a,sp
      000682 24 F9            [12] 2674 	add	a,#0xf9
      000684 F5 81            [12] 2675 	mov	sp,a
                           000686  2676 	C$lab2_func.c$419$1$103 ==.
                                   2677 ;	C:\Users\Tim\Documents\LITEC\Lab2\lab2-func.c:419: for (i = 0; i < 8; i++) {
      000686 05*05            [12] 2678 	inc	_i
      000688 74 F8            [12] 2679 	mov	a,#0x100 - 0x08
      00068A 25*05            [12] 2680 	add	a,_i
      00068C 50 C9            [24] 2681 	jnc	00180$
                           00068E  2682 	C$lab2_func.c$422$1$103 ==.
                                   2683 ;	C:\Users\Tim\Documents\LITEC\Lab2\lab2-func.c:422: Counts = 0;
      00068E E4               [12] 2684 	clr	a
      00068F F5*00            [12] 2685 	mov	_Counts,a
      000691 F5*01            [12] 2686 	mov	(_Counts + 1),a
                           000693  2687 	C$lab2_func.c$423$1$103 ==.
                                   2688 ;	C:\Users\Tim\Documents\LITEC\Lab2\lab2-func.c:423: printf("\r Player2's turn start in 10 seconds \n");
      000693 74rA9            [12] 2689 	mov	a,#___str_24
      000695 C0 E0            [24] 2690 	push	acc
      000697 74s03            [12] 2691 	mov	a,#(___str_24 >> 8)
      000699 C0 E0            [24] 2692 	push	acc
      00069B 74 80            [12] 2693 	mov	a,#0x80
      00069D C0 E0            [24] 2694 	push	acc
      00069F 12r00r00         [24] 2695 	lcall	_printf
      0006A2 15 81            [12] 2696 	dec	sp
      0006A4 15 81            [12] 2697 	dec	sp
      0006A6 15 81            [12] 2698 	dec	sp
                           0006A8  2699 	C$lab2_func.c$424$1$103 ==.
                                   2700 ;	C:\Users\Tim\Documents\LITEC\Lab2\lab2-func.c:424: while (Counts < 3370);
      0006A8                       2701 00175$:
      0006A8 C3               [12] 2702 	clr	c
      0006A9 E5*00            [12] 2703 	mov	a,_Counts
      0006AB 94 2A            [12] 2704 	subb	a,#0x2a
      0006AD E5*01            [12] 2705 	mov	a,(_Counts + 1)
      0006AF 94 0D            [12] 2706 	subb	a,#0x0d
      0006B1 40 F5            [24] 2707 	jc	00175$
                           0006B3  2708 	C$lab2_func.c$425$1$103 ==.
                                   2709 ;	C:\Users\Tim\Documents\LITEC\Lab2\lab2-func.c:425: game();
      0006B3 12r0Cr3F         [24] 2710 	lcall	_game
                           0006B6  2711 	C$lab2_func.c$426$1$103 ==.
                           0006B6  2712 	XG$mode2$0$0 ==.
      0006B6 22               [24] 2713 	ret
                                   2714 ;------------------------------------------------------------
                                   2715 ;Allocation info for local variables in function 'mode3'
                                   2716 ;------------------------------------------------------------
                           0006B7  2717 	G$mode3$0$0 ==.
                           0006B7  2718 	C$lab2_func.c$430$1$103 ==.
                                   2719 ;	C:\Users\Tim\Documents\LITEC\Lab2\lab2-func.c:430: void mode3(void)
                                   2720 ;	-----------------------------------------
                                   2721 ;	 function mode3
                                   2722 ;	-----------------------------------------
      0006B7                       2723 _mode3:
                           0006B7  2724 	C$lab2_func.c$432$1$120 ==.
                                   2725 ;	C:\Users\Tim\Documents\LITEC\Lab2\lab2-func.c:432: printf("game rule\r\n");
      0006B7 74rAF            [12] 2726 	mov	a,#___str_7
      0006B9 C0 E0            [24] 2727 	push	acc
      0006BB 74s01            [12] 2728 	mov	a,#(___str_7 >> 8)
      0006BD C0 E0            [24] 2729 	push	acc
      0006BF 74 80            [12] 2730 	mov	a,#0x80
      0006C1 C0 E0            [24] 2731 	push	acc
      0006C3 12r00r00         [24] 2732 	lcall	_printf
      0006C6 15 81            [12] 2733 	dec	sp
      0006C8 15 81            [12] 2734 	dec	sp
      0006CA 15 81            [12] 2735 	dec	sp
                           0006CC  2736 	C$lab2_func.c$433$1$120 ==.
                                   2737 ;	C:\Users\Tim\Documents\LITEC\Lab2\lab2-func.c:433: theBuzz();
      0006CC 12r0Ar65         [24] 2738 	lcall	_theBuzz
                           0006CF  2739 	C$lab2_func.c$434$1$120 ==.
                                   2740 ;	C:\Users\Tim\Documents\LITEC\Lab2\lab2-func.c:434: clear();
      0006CF 12r01r58         [24] 2741 	lcall	_clear
                           0006D2  2742 	C$lab2_func.c$435$1$120 ==.
                                   2743 ;	C:\Users\Tim\Documents\LITEC\Lab2\lab2-func.c:435: Counts = 0; //Reset Counter
      0006D2 E4               [12] 2744 	clr	a
      0006D3 F5*00            [12] 2745 	mov	_Counts,a
      0006D5 F5*01            [12] 2746 	mov	(_Counts + 1),a
                           0006D7  2747 	C$lab2_func.c$438$1$120 ==.
                                   2748 ;	C:\Users\Tim\Documents\LITEC\Lab2\lab2-func.c:438: printf("\rSet blink rate, then press PB0\n\r");
      0006D7 74rD0            [12] 2749 	mov	a,#___str_25
      0006D9 C0 E0            [24] 2750 	push	acc
      0006DB 74s03            [12] 2751 	mov	a,#(___str_25 >> 8)
      0006DD C0 E0            [24] 2752 	push	acc
      0006DF 74 80            [12] 2753 	mov	a,#0x80
      0006E1 C0 E0            [24] 2754 	push	acc
      0006E3 12r00r00         [24] 2755 	lcall	_printf
      0006E6 15 81            [12] 2756 	dec	sp
      0006E8 15 81            [12] 2757 	dec	sp
      0006EA 15 81            [12] 2758 	dec	sp
                           0006EC  2759 	C$lab2_func.c$440$1$120 ==.
                                   2760 ;	C:\Users\Tim\Documents\LITEC\Lab2\lab2-func.c:440: TR0 = 1; //Turn on timer
      0006EC D2 8C            [12] 2761 	setb	_TR0
                           0006EE  2762 	C$lab2_func.c$441$1$120 ==.
                                   2763 ;	C:\Users\Tim\Documents\LITEC\Lab2\lab2-func.c:441: while(PB0)
      0006EE                       2764 00104$:
      0006EE 20 B2 03         [24] 2765 	jb	_PB0,00190$
      0006F1 02r07r9A         [24] 2766 	ljmp	00106$
      0006F4                       2767 00190$:
                           0006F4  2768 	C$lab2_func.c$443$2$121 ==.
                                   2769 ;	C:\Users\Tim\Documents\LITEC\Lab2\lab2-func.c:443: currCounts = Counts; 
      0006F4 85*00*26         [24] 2770 	mov	_currCounts,_Counts
      0006F7 85*01*27         [24] 2771 	mov	(_currCounts + 1),(_Counts + 1)
                           0006FA  2772 	C$lab2_func.c$444$2$121 ==.
                                   2773 ;	C:\Users\Tim\Documents\LITEC\Lab2\lab2-func.c:444: while(Counts < 7+currCounts); //Debounce
      0006FA                       2774 00101$:
      0006FA 74 07            [12] 2775 	mov	a,#0x07
      0006FC 25*26            [12] 2776 	add	a,_currCounts
      0006FE FE               [12] 2777 	mov	r6,a
      0006FF E4               [12] 2778 	clr	a
      000700 35*27            [12] 2779 	addc	a,(_currCounts + 1)
      000702 FF               [12] 2780 	mov	r7,a
      000703 C3               [12] 2781 	clr	c
      000704 E5*00            [12] 2782 	mov	a,_Counts
      000706 9E               [12] 2783 	subb	a,r6
      000707 E5*01            [12] 2784 	mov	a,(_Counts + 1)
      000709 9F               [12] 2785 	subb	a,r7
      00070A 40 EE            [24] 2786 	jc	00101$
                           00070C  2787 	C$lab2_func.c$445$2$121 ==.
                                   2788 ;	C:\Users\Tim\Documents\LITEC\Lab2\lab2-func.c:445: ADresult = read_AD_input(4); //read AD input from pin1.4
      00070C 75 82 04         [24] 2789 	mov	dpl,#0x04
      00070F 12r00rFD         [24] 2790 	lcall	_read_AD_input
                           000712  2791 	C$lab2_func.c$446$1$120 ==.
                                   2792 ;	C:\Users\Tim\Documents\LITEC\Lab2\lab2-func.c:446: blink_rate = ((ADresult*0.95/255.0)+1.0); //Convert to ADresult to speed
      000712 85 82*20         [24] 2793 	mov  _ADresult,dpl
      000715 12r00r00         [24] 2794 	lcall	___uchar2fs
      000718 AC 82            [24] 2795 	mov	r4,dpl
      00071A AD 83            [24] 2796 	mov	r5,dph
      00071C AE F0            [24] 2797 	mov	r6,b
      00071E FF               [12] 2798 	mov	r7,a
      00071F C0 04            [24] 2799 	push	ar4
      000721 C0 05            [24] 2800 	push	ar5
      000723 C0 06            [24] 2801 	push	ar6
      000725 C0 07            [24] 2802 	push	ar7
      000727 90 33 33         [24] 2803 	mov	dptr,#0x3333
      00072A 75 F0 73         [24] 2804 	mov	b,#0x73
      00072D 74 3F            [12] 2805 	mov	a,#0x3f
      00072F 12r00r00         [24] 2806 	lcall	___fsmul
      000732 AC 82            [24] 2807 	mov	r4,dpl
      000734 AD 83            [24] 2808 	mov	r5,dph
      000736 AE F0            [24] 2809 	mov	r6,b
      000738 FF               [12] 2810 	mov	r7,a
      000739 E5 81            [12] 2811 	mov	a,sp
      00073B 24 FC            [12] 2812 	add	a,#0xfc
      00073D F5 81            [12] 2813 	mov	sp,a
      00073F E4               [12] 2814 	clr	a
      000740 C0 E0            [24] 2815 	push	acc
      000742 C0 E0            [24] 2816 	push	acc
      000744 74 7F            [12] 2817 	mov	a,#0x7f
      000746 C0 E0            [24] 2818 	push	acc
      000748 74 43            [12] 2819 	mov	a,#0x43
      00074A C0 E0            [24] 2820 	push	acc
      00074C 8C 82            [24] 2821 	mov	dpl,r4
      00074E 8D 83            [24] 2822 	mov	dph,r5
      000750 8E F0            [24] 2823 	mov	b,r6
      000752 EF               [12] 2824 	mov	a,r7
      000753 12r00r00         [24] 2825 	lcall	___fsdiv
      000756 AC 82            [24] 2826 	mov	r4,dpl
      000758 AD 83            [24] 2827 	mov	r5,dph
      00075A AE F0            [24] 2828 	mov	r6,b
      00075C FF               [12] 2829 	mov	r7,a
      00075D E5 81            [12] 2830 	mov	a,sp
      00075F 24 FC            [12] 2831 	add	a,#0xfc
      000761 F5 81            [12] 2832 	mov	sp,a
      000763 E4               [12] 2833 	clr	a
      000764 C0 E0            [24] 2834 	push	acc
      000766 C0 E0            [24] 2835 	push	acc
      000768 74 80            [12] 2836 	mov	a,#0x80
      00076A C0 E0            [24] 2837 	push	acc
      00076C 74 3F            [12] 2838 	mov	a,#0x3f
      00076E C0 E0            [24] 2839 	push	acc
      000770 8C 82            [24] 2840 	mov	dpl,r4
      000772 8D 83            [24] 2841 	mov	dph,r5
      000774 8E F0            [24] 2842 	mov	b,r6
      000776 EF               [12] 2843 	mov	a,r7
      000777 12r00r00         [24] 2844 	lcall	___fsadd
      00077A AC 82            [24] 2845 	mov	r4,dpl
      00077C AD 83            [24] 2846 	mov	r5,dph
      00077E AE F0            [24] 2847 	mov	r6,b
      000780 FF               [12] 2848 	mov	r7,a
      000781 E5 81            [12] 2849 	mov	a,sp
      000783 24 FC            [12] 2850 	add	a,#0xfc
      000785 F5 81            [12] 2851 	mov	sp,a
      000787 8C 82            [24] 2852 	mov	dpl,r4
      000789 8D 83            [24] 2853 	mov	dph,r5
      00078B 8E F0            [24] 2854 	mov	b,r6
      00078D EF               [12] 2855 	mov	a,r7
      00078E 12r00r00         [24] 2856 	lcall	___fs2uint
      000791 85 82*21         [24] 2857 	mov	_blink_rate,dpl
      000794 85 83*22         [24] 2858 	mov	(_blink_rate + 1),dph
      000797 02r06rEE         [24] 2859 	ljmp	00104$
      00079A                       2860 00106$:
                           00079A  2861 	C$lab2_func.c$449$1$120 ==.
                                   2862 ;	C:\Users\Tim\Documents\LITEC\Lab2\lab2-func.c:449: printf("\rBlink Rate: %d\n\r", blink_rate);
      00079A C0*21            [24] 2863 	push	_blink_rate
      00079C C0*22            [24] 2864 	push	(_blink_rate + 1)
      00079E 74rF2            [12] 2865 	mov	a,#___str_26
      0007A0 C0 E0            [24] 2866 	push	acc
      0007A2 74s03            [12] 2867 	mov	a,#(___str_26 >> 8)
      0007A4 C0 E0            [24] 2868 	push	acc
      0007A6 74 80            [12] 2869 	mov	a,#0x80
      0007A8 C0 E0            [24] 2870 	push	acc
      0007AA 12r00r00         [24] 2871 	lcall	_printf
      0007AD E5 81            [12] 2872 	mov	a,sp
      0007AF 24 FB            [12] 2873 	add	a,#0xfb
      0007B1 F5 81            [12] 2874 	mov	sp,a
                           0007B3  2875 	C$lab2_func.c$452$1$120 ==.
                                   2876 ;	C:\Users\Tim\Documents\LITEC\Lab2\lab2-func.c:452: LED0 = 0; //LED0 on
      0007B3 C2 A0            [12] 2877 	clr	_LED0
                           0007B5  2878 	C$lab2_func.c$453$1$120 ==.
                                   2879 ;	C:\Users\Tim\Documents\LITEC\Lab2\lab2-func.c:453: while(Counts < speed*blink_rate);
      0007B5                       2880 00107$:
      0007B5 85*21*00         [24] 2881 	mov	__mulint_PARM_2,_blink_rate
      0007B8 85*22*01         [24] 2882 	mov	(__mulint_PARM_2 + 1),(_blink_rate + 1)
      0007BB 85*06 82         [24] 2883 	mov	dpl,_speed
      0007BE 85*07 83         [24] 2884 	mov	dph,(_speed + 1)
      0007C1 12r00r00         [24] 2885 	lcall	__mulint
      0007C4 AE 82            [24] 2886 	mov	r6,dpl
      0007C6 AF 83            [24] 2887 	mov	r7,dph
      0007C8 C3               [12] 2888 	clr	c
      0007C9 E5*00            [12] 2889 	mov	a,_Counts
      0007CB 9E               [12] 2890 	subb	a,r6
      0007CC E5*01            [12] 2891 	mov	a,(_Counts + 1)
      0007CE 9F               [12] 2892 	subb	a,r7
      0007CF 40 E4            [24] 2893 	jc	00107$
                           0007D1  2894 	C$lab2_func.c$454$1$120 ==.
                                   2895 ;	C:\Users\Tim\Documents\LITEC\Lab2\lab2-func.c:454: LED0 = 1; //LED0 off
      0007D1 D2 A0            [12] 2896 	setb	_LED0
                           0007D3  2897 	C$lab2_func.c$456$1$120 ==.
                                   2898 ;	C:\Users\Tim\Documents\LITEC\Lab2\lab2-func.c:456: currCounts = Counts; 
      0007D3 85*00*26         [24] 2899 	mov	_currCounts,_Counts
      0007D6 85*01*27         [24] 2900 	mov	(_currCounts + 1),(_Counts + 1)
                           0007D9  2901 	C$lab2_func.c$457$1$120 ==.
                                   2902 ;	C:\Users\Tim\Documents\LITEC\Lab2\lab2-func.c:457: while(Counts < 50+currCounts); //Debounce
      0007D9                       2903 00110$:
      0007D9 74 32            [12] 2904 	mov	a,#0x32
      0007DB 25*26            [12] 2905 	add	a,_currCounts
      0007DD FE               [12] 2906 	mov	r6,a
      0007DE E4               [12] 2907 	clr	a
      0007DF 35*27            [12] 2908 	addc	a,(_currCounts + 1)
      0007E1 FF               [12] 2909 	mov	r7,a
      0007E2 C3               [12] 2910 	clr	c
      0007E3 E5*00            [12] 2911 	mov	a,_Counts
      0007E5 9E               [12] 2912 	subb	a,r6
      0007E6 E5*01            [12] 2913 	mov	a,(_Counts + 1)
      0007E8 9F               [12] 2914 	subb	a,r7
      0007E9 40 EE            [24] 2915 	jc	00110$
                           0007EB  2916 	C$lab2_func.c$460$1$120 ==.
                                   2917 ;	C:\Users\Tim\Documents\LITEC\Lab2\lab2-func.c:460: printf("\rSet Delay, then press PB0\n\r");
      0007EB 74r04            [12] 2918 	mov	a,#___str_27
      0007ED C0 E0            [24] 2919 	push	acc
      0007EF 74s04            [12] 2920 	mov	a,#(___str_27 >> 8)
      0007F1 C0 E0            [24] 2921 	push	acc
      0007F3 74 80            [12] 2922 	mov	a,#0x80
      0007F5 C0 E0            [24] 2923 	push	acc
      0007F7 12r00r00         [24] 2924 	lcall	_printf
      0007FA 15 81            [12] 2925 	dec	sp
      0007FC 15 81            [12] 2926 	dec	sp
      0007FE 15 81            [12] 2927 	dec	sp
                           000800  2928 	C$lab2_func.c$461$1$120 ==.
                                   2929 ;	C:\Users\Tim\Documents\LITEC\Lab2\lab2-func.c:461: while(PB0)
      000800                       2930 00113$:
      000800 20 B2 03         [24] 2931 	jb	_PB0,00194$
      000803 02r08r94         [24] 2932 	ljmp	00115$
      000806                       2933 00194$:
                           000806  2934 	C$lab2_func.c$464$2$122 ==.
                                   2935 ;	C:\Users\Tim\Documents\LITEC\Lab2\lab2-func.c:464: ADresult = read_AD_input(4);
      000806 75 82 04         [24] 2936 	mov	dpl,#0x04
      000809 12r00rFD         [24] 2937 	lcall	_read_AD_input
                           00080C  2938 	C$lab2_func.c$465$1$120 ==.
                                   2939 ;	C:\Users\Tim\Documents\LITEC\Lab2\lab2-func.c:465: delay = ((ADresult*7.0/255.0)+1.0);
      00080C 85 82*20         [24] 2940 	mov  _ADresult,dpl
      00080F 12r00r00         [24] 2941 	lcall	___uchar2fs
      000812 AC 82            [24] 2942 	mov	r4,dpl
      000814 AD 83            [24] 2943 	mov	r5,dph
      000816 AE F0            [24] 2944 	mov	r6,b
      000818 FF               [12] 2945 	mov	r7,a
      000819 C0 04            [24] 2946 	push	ar4
      00081B C0 05            [24] 2947 	push	ar5
      00081D C0 06            [24] 2948 	push	ar6
      00081F C0 07            [24] 2949 	push	ar7
      000821 90 00 00         [24] 2950 	mov	dptr,#0x0000
      000824 75 F0 E0         [24] 2951 	mov	b,#0xe0
      000827 74 40            [12] 2952 	mov	a,#0x40
      000829 12r00r00         [24] 2953 	lcall	___fsmul
      00082C AC 82            [24] 2954 	mov	r4,dpl
      00082E AD 83            [24] 2955 	mov	r5,dph
      000830 AE F0            [24] 2956 	mov	r6,b
      000832 FF               [12] 2957 	mov	r7,a
      000833 E5 81            [12] 2958 	mov	a,sp
      000835 24 FC            [12] 2959 	add	a,#0xfc
      000837 F5 81            [12] 2960 	mov	sp,a
      000839 E4               [12] 2961 	clr	a
      00083A C0 E0            [24] 2962 	push	acc
      00083C C0 E0            [24] 2963 	push	acc
      00083E 74 7F            [12] 2964 	mov	a,#0x7f
      000840 C0 E0            [24] 2965 	push	acc
      000842 74 43            [12] 2966 	mov	a,#0x43
      000844 C0 E0            [24] 2967 	push	acc
      000846 8C 82            [24] 2968 	mov	dpl,r4
      000848 8D 83            [24] 2969 	mov	dph,r5
      00084A 8E F0            [24] 2970 	mov	b,r6
      00084C EF               [12] 2971 	mov	a,r7
      00084D 12r00r00         [24] 2972 	lcall	___fsdiv
      000850 AC 82            [24] 2973 	mov	r4,dpl
      000852 AD 83            [24] 2974 	mov	r5,dph
      000854 AE F0            [24] 2975 	mov	r6,b
      000856 FF               [12] 2976 	mov	r7,a
      000857 E5 81            [12] 2977 	mov	a,sp
      000859 24 FC            [12] 2978 	add	a,#0xfc
      00085B F5 81            [12] 2979 	mov	sp,a
      00085D E4               [12] 2980 	clr	a
      00085E C0 E0            [24] 2981 	push	acc
      000860 C0 E0            [24] 2982 	push	acc
      000862 74 80            [12] 2983 	mov	a,#0x80
      000864 C0 E0            [24] 2984 	push	acc
      000866 74 3F            [12] 2985 	mov	a,#0x3f
      000868 C0 E0            [24] 2986 	push	acc
      00086A 8C 82            [24] 2987 	mov	dpl,r4
      00086C 8D 83            [24] 2988 	mov	dph,r5
      00086E 8E F0            [24] 2989 	mov	b,r6
      000870 EF               [12] 2990 	mov	a,r7
      000871 12r00r00         [24] 2991 	lcall	___fsadd
      000874 AC 82            [24] 2992 	mov	r4,dpl
      000876 AD 83            [24] 2993 	mov	r5,dph
      000878 AE F0            [24] 2994 	mov	r6,b
      00087A FF               [12] 2995 	mov	r7,a
      00087B E5 81            [12] 2996 	mov	a,sp
      00087D 24 FC            [12] 2997 	add	a,#0xfc
      00087F F5 81            [12] 2998 	mov	sp,a
      000881 8C 82            [24] 2999 	mov	dpl,r4
      000883 8D 83            [24] 3000 	mov	dph,r5
      000885 8E F0            [24] 3001 	mov	b,r6
      000887 EF               [12] 3002 	mov	a,r7
      000888 12r00r00         [24] 3003 	lcall	___fs2uint
      00088B 85 82*23         [24] 3004 	mov	_delay,dpl
      00088E 85 83*24         [24] 3005 	mov	(_delay + 1),dph
      000891 02r08r00         [24] 3006 	ljmp	00113$
      000894                       3007 00115$:
                           000894  3008 	C$lab2_func.c$468$1$120 ==.
                                   3009 ;	C:\Users\Tim\Documents\LITEC\Lab2\lab2-func.c:468: printf("Delay: %u \n\r", delay);
      000894 C0*23            [24] 3010 	push	_delay
      000896 C0*24            [24] 3011 	push	(_delay + 1)
      000898 74r21            [12] 3012 	mov	a,#___str_28
      00089A C0 E0            [24] 3013 	push	acc
      00089C 74s04            [12] 3014 	mov	a,#(___str_28 >> 8)
      00089E C0 E0            [24] 3015 	push	acc
      0008A0 74 80            [12] 3016 	mov	a,#0x80
      0008A2 C0 E0            [24] 3017 	push	acc
      0008A4 12r00r00         [24] 3018 	lcall	_printf
      0008A7 E5 81            [12] 3019 	mov	a,sp
      0008A9 24 FB            [12] 3020 	add	a,#0xfb
      0008AB F5 81            [12] 3021 	mov	sp,a
                           0008AD  3022 	C$lab2_func.c$470$1$120 ==.
                                   3023 ;	C:\Users\Tim\Documents\LITEC\Lab2\lab2-func.c:470: Counts = 0; //reset counter
      0008AD E4               [12] 3024 	clr	a
      0008AE F5*00            [12] 3025 	mov	_Counts,a
      0008B0 F5*01            [12] 3026 	mov	(_Counts + 1),a
                           0008B2  3027 	C$lab2_func.c$471$1$120 ==.
                                   3028 ;	C:\Users\Tim\Documents\LITEC\Lab2\lab2-func.c:471: LED0 = 0; //LED0 on
      0008B2 C2 A0            [12] 3029 	clr	_LED0
                           0008B4  3030 	C$lab2_func.c$472$1$120 ==.
                                   3031 ;	C:\Users\Tim\Documents\LITEC\Lab2\lab2-func.c:472: while(Counts < speed*0.5);
      0008B4                       3032 00116$:
      0008B4 85*06 82         [24] 3033 	mov	dpl,_speed
      0008B7 85*07 83         [24] 3034 	mov	dph,(_speed + 1)
      0008BA 12r00r00         [24] 3035 	lcall	___uint2fs
      0008BD AC 82            [24] 3036 	mov	r4,dpl
      0008BF AD 83            [24] 3037 	mov	r5,dph
      0008C1 AE F0            [24] 3038 	mov	r6,b
      0008C3 FF               [12] 3039 	mov	r7,a
      0008C4 C0 04            [24] 3040 	push	ar4
      0008C6 C0 05            [24] 3041 	push	ar5
      0008C8 C0 06            [24] 3042 	push	ar6
      0008CA C0 07            [24] 3043 	push	ar7
      0008CC 90 00 00         [24] 3044 	mov	dptr,#(0x00&0x00ff)
      0008CF E4               [12] 3045 	clr	a
      0008D0 F5 F0            [12] 3046 	mov	b,a
      0008D2 74 3F            [12] 3047 	mov	a,#0x3f
      0008D4 12r00r00         [24] 3048 	lcall	___fsmul
      0008D7 AC 82            [24] 3049 	mov	r4,dpl
      0008D9 AD 83            [24] 3050 	mov	r5,dph
      0008DB AE F0            [24] 3051 	mov	r6,b
      0008DD FF               [12] 3052 	mov	r7,a
      0008DE E5 81            [12] 3053 	mov	a,sp
      0008E0 24 FC            [12] 3054 	add	a,#0xfc
      0008E2 F5 81            [12] 3055 	mov	sp,a
      0008E4 85*00 82         [24] 3056 	mov	dpl,_Counts
      0008E7 85*01 83         [24] 3057 	mov	dph,(_Counts + 1)
      0008EA C0 07            [24] 3058 	push	ar7
      0008EC C0 06            [24] 3059 	push	ar6
      0008EE C0 05            [24] 3060 	push	ar5
      0008F0 C0 04            [24] 3061 	push	ar4
      0008F2 12r00r00         [24] 3062 	lcall	___uint2fs
      0008F5 A8 82            [24] 3063 	mov	r0,dpl
      0008F7 A9 83            [24] 3064 	mov	r1,dph
      0008F9 AA F0            [24] 3065 	mov	r2,b
      0008FB FB               [12] 3066 	mov	r3,a
      0008FC D0 04            [24] 3067 	pop	ar4
      0008FE D0 05            [24] 3068 	pop	ar5
      000900 D0 06            [24] 3069 	pop	ar6
      000902 D0 07            [24] 3070 	pop	ar7
      000904 C0 04            [24] 3071 	push	ar4
      000906 C0 05            [24] 3072 	push	ar5
      000908 C0 06            [24] 3073 	push	ar6
      00090A C0 07            [24] 3074 	push	ar7
      00090C 88 82            [24] 3075 	mov	dpl,r0
      00090E 89 83            [24] 3076 	mov	dph,r1
      000910 8A F0            [24] 3077 	mov	b,r2
      000912 EB               [12] 3078 	mov	a,r3
      000913 12r00r00         [24] 3079 	lcall	___fslt
      000916 AF 82            [24] 3080 	mov	r7,dpl
      000918 E5 81            [12] 3081 	mov	a,sp
      00091A 24 FC            [12] 3082 	add	a,#0xfc
      00091C F5 81            [12] 3083 	mov	sp,a
      00091E EF               [12] 3084 	mov	a,r7
      00091F 70 93            [24] 3085 	jnz	00116$
                           000921  3086 	C$lab2_func.c$473$1$120 ==.
                                   3087 ;	C:\Users\Tim\Documents\LITEC\Lab2\lab2-func.c:473: LED0 = 1; //LED0 off
      000921 D2 A0            [12] 3088 	setb	_LED0
                           000923  3089 	C$lab2_func.c$474$1$120 ==.
                                   3090 ;	C:\Users\Tim\Documents\LITEC\Lab2\lab2-func.c:474: while(Counts < (speed*(delay+0.5)));
      000923                       3091 00119$:
      000923 85*23 82         [24] 3092 	mov	dpl,_delay
      000926 85*24 83         [24] 3093 	mov	dph,(_delay + 1)
      000929 12r00r00         [24] 3094 	lcall	___uint2fs
      00092C AC 82            [24] 3095 	mov	r4,dpl
      00092E AD 83            [24] 3096 	mov	r5,dph
      000930 AE F0            [24] 3097 	mov	r6,b
      000932 FF               [12] 3098 	mov	r7,a
      000933 E4               [12] 3099 	clr	a
      000934 C0 E0            [24] 3100 	push	acc
      000936 C0 E0            [24] 3101 	push	acc
      000938 C0 E0            [24] 3102 	push	acc
      00093A 74 3F            [12] 3103 	mov	a,#0x3f
      00093C C0 E0            [24] 3104 	push	acc
      00093E 8C 82            [24] 3105 	mov	dpl,r4
      000940 8D 83            [24] 3106 	mov	dph,r5
      000942 8E F0            [24] 3107 	mov	b,r6
      000944 EF               [12] 3108 	mov	a,r7
      000945 12r00r00         [24] 3109 	lcall	___fsadd
      000948 AC 82            [24] 3110 	mov	r4,dpl
      00094A AD 83            [24] 3111 	mov	r5,dph
      00094C AE F0            [24] 3112 	mov	r6,b
      00094E FF               [12] 3113 	mov	r7,a
      00094F E5 81            [12] 3114 	mov	a,sp
      000951 24 FC            [12] 3115 	add	a,#0xfc
      000953 F5 81            [12] 3116 	mov	sp,a
      000955 85*06 82         [24] 3117 	mov	dpl,_speed
      000958 85*07 83         [24] 3118 	mov	dph,(_speed + 1)
      00095B C0 07            [24] 3119 	push	ar7
      00095D C0 06            [24] 3120 	push	ar6
      00095F C0 05            [24] 3121 	push	ar5
      000961 C0 04            [24] 3122 	push	ar4
      000963 12r00r00         [24] 3123 	lcall	___uint2fs
      000966 A8 82            [24] 3124 	mov	r0,dpl
      000968 A9 83            [24] 3125 	mov	r1,dph
      00096A AA F0            [24] 3126 	mov	r2,b
      00096C FB               [12] 3127 	mov	r3,a
      00096D D0 04            [24] 3128 	pop	ar4
      00096F D0 05            [24] 3129 	pop	ar5
      000971 D0 06            [24] 3130 	pop	ar6
      000973 D0 07            [24] 3131 	pop	ar7
      000975 C0 04            [24] 3132 	push	ar4
      000977 C0 05            [24] 3133 	push	ar5
      000979 C0 06            [24] 3134 	push	ar6
      00097B C0 07            [24] 3135 	push	ar7
      00097D 88 82            [24] 3136 	mov	dpl,r0
      00097F 89 83            [24] 3137 	mov	dph,r1
      000981 8A F0            [24] 3138 	mov	b,r2
      000983 EB               [12] 3139 	mov	a,r3
      000984 12r00r00         [24] 3140 	lcall	___fsmul
      000987 AC 82            [24] 3141 	mov	r4,dpl
      000989 AD 83            [24] 3142 	mov	r5,dph
      00098B AE F0            [24] 3143 	mov	r6,b
      00098D FF               [12] 3144 	mov	r7,a
      00098E E5 81            [12] 3145 	mov	a,sp
      000990 24 FC            [12] 3146 	add	a,#0xfc
      000992 F5 81            [12] 3147 	mov	sp,a
      000994 85*00 82         [24] 3148 	mov	dpl,_Counts
      000997 85*01 83         [24] 3149 	mov	dph,(_Counts + 1)
      00099A C0 07            [24] 3150 	push	ar7
      00099C C0 06            [24] 3151 	push	ar6
      00099E C0 05            [24] 3152 	push	ar5
      0009A0 C0 04            [24] 3153 	push	ar4
      0009A2 12r00r00         [24] 3154 	lcall	___uint2fs
      0009A5 A8 82            [24] 3155 	mov	r0,dpl
      0009A7 A9 83            [24] 3156 	mov	r1,dph
      0009A9 AA F0            [24] 3157 	mov	r2,b
      0009AB FB               [12] 3158 	mov	r3,a
      0009AC D0 04            [24] 3159 	pop	ar4
      0009AE D0 05            [24] 3160 	pop	ar5
      0009B0 D0 06            [24] 3161 	pop	ar6
      0009B2 D0 07            [24] 3162 	pop	ar7
      0009B4 C0 04            [24] 3163 	push	ar4
      0009B6 C0 05            [24] 3164 	push	ar5
      0009B8 C0 06            [24] 3165 	push	ar6
      0009BA C0 07            [24] 3166 	push	ar7
      0009BC 88 82            [24] 3167 	mov	dpl,r0
      0009BE 89 83            [24] 3168 	mov	dph,r1
      0009C0 8A F0            [24] 3169 	mov	b,r2
      0009C2 EB               [12] 3170 	mov	a,r3
      0009C3 12r00r00         [24] 3171 	lcall	___fslt
      0009C6 AF 82            [24] 3172 	mov	r7,dpl
      0009C8 E5 81            [12] 3173 	mov	a,sp
      0009CA 24 FC            [12] 3174 	add	a,#0xfc
      0009CC F5 81            [12] 3175 	mov	sp,a
      0009CE EF               [12] 3176 	mov	a,r7
      0009CF 60 03            [24] 3177 	jz	00196$
      0009D1 02r09r23         [24] 3178 	ljmp	00119$
      0009D4                       3179 00196$:
                           0009D4  3180 	C$lab2_func.c$475$1$120 ==.
                                   3181 ;	C:\Users\Tim\Documents\LITEC\Lab2\lab2-func.c:475: LED0 = 0;
      0009D4 C2 A0            [12] 3182 	clr	_LED0
                           0009D6  3183 	C$lab2_func.c$476$1$120 ==.
                                   3184 ;	C:\Users\Tim\Documents\LITEC\Lab2\lab2-func.c:476: while(Counts < 337*0.5);
      0009D6                       3185 00122$:
      0009D6 C3               [12] 3186 	clr	c
      0009D7 E5*00            [12] 3187 	mov	a,_Counts
      0009D9 94 A8            [12] 3188 	subb	a,#0xa8
      0009DB E5*01            [12] 3189 	mov	a,(_Counts + 1)
      0009DD 94 00            [12] 3190 	subb	a,#0x00
      0009DF 40 F5            [24] 3191 	jc	00122$
                           0009E1  3192 	C$lab2_func.c$477$1$120 ==.
                                   3193 ;	C:\Users\Tim\Documents\LITEC\Lab2\lab2-func.c:477: LED0 = 1; //LED0 off
      0009E1 D2 A0            [12] 3194 	setb	_LED0
                           0009E3  3195 	C$lab2_func.c$482$1$120 ==.
                                   3196 ;	C:\Users\Tim\Documents\LITEC\Lab2\lab2-func.c:482: printf("\rBeginning the Game\n\r");
      0009E3 74r2E            [12] 3197 	mov	a,#___str_29
      0009E5 C0 E0            [24] 3198 	push	acc
      0009E7 74s04            [12] 3199 	mov	a,#(___str_29 >> 8)
      0009E9 C0 E0            [24] 3200 	push	acc
      0009EB 74 80            [12] 3201 	mov	a,#0x80
      0009ED C0 E0            [24] 3202 	push	acc
      0009EF 12r00r00         [24] 3203 	lcall	_printf
      0009F2 15 81            [12] 3204 	dec	sp
      0009F4 15 81            [12] 3205 	dec	sp
      0009F6 15 81            [12] 3206 	dec	sp
                           0009F8  3207 	C$lab2_func.c$484$1$120 ==.
                                   3208 ;	C:\Users\Tim\Documents\LITEC\Lab2\lab2-func.c:484: for(i = 0; i < 5; i++)
      0009F8 75*05 00         [24] 3209 	mov	_i,#0x00
      0009FB                       3210 00129$:
                           0009FB  3211 	C$lab2_func.c$486$2$123 ==.
                                   3212 ;	C:\Users\Tim\Documents\LITEC\Lab2\lab2-func.c:486: TR0 = 1;
      0009FB D2 8C            [12] 3213 	setb	_TR0
                           0009FD  3214 	C$lab2_func.c$487$2$123 ==.
                                   3215 ;	C:\Users\Tim\Documents\LITEC\Lab2\lab2-func.c:487: led_on = random(1);
      0009FD 75 82 01         [24] 3216 	mov	dpl,#0x01
      000A00 12r01r0F         [24] 3217 	lcall	_random
                           000A03  3218 	C$lab2_func.c$488$2$123 ==.
                                   3219 ;	C:\Users\Tim\Documents\LITEC\Lab2\lab2-func.c:488: lightLEDmode3(led_on);
      000A03 85 82*25         [24] 3220 	mov  _led_on,dpl
      000A06 12r0Br14         [24] 3221 	lcall	_lightLEDmode3
                           000A09  3222 	C$lab2_func.c$490$2$123 ==.
                                   3223 ;	C:\Users\Tim\Documents\LITEC\Lab2\lab2-func.c:490: if(buttonPress() == led_on)
      000A09 12r0Br7E         [24] 3224 	lcall	_buttonPress
      000A0C E5 82            [12] 3225 	mov	a,dpl
      000A0E FF               [12] 3226 	mov	r7,a
      000A0F B5*25 11         [24] 3227 	cjne	a,_led_on,00126$
                           000A12  3228 	C$lab2_func.c$493$3$124 ==.
                                   3229 ;	C:\Users\Tim\Documents\LITEC\Lab2\lab2-func.c:493: BILED2 = 0;
      000A12 C2 A1            [12] 3230 	clr	_BILED2
                           000A14  3231 	C$lab2_func.c$494$3$124 ==.
                                   3232 ;	C:\Users\Tim\Documents\LITEC\Lab2\lab2-func.c:494: theBuzz();//TTTTTTTTTTTTT
      000A14 12r0Ar65         [24] 3233 	lcall	_theBuzz
                           000A17  3234 	C$lab2_func.c$495$3$124 ==.
                                   3235 ;	C:\Users\Tim\Documents\LITEC\Lab2\lab2-func.c:495: BILED2 = 1;
      000A17 D2 A1            [12] 3236 	setb	_BILED2
                           000A19  3237 	C$lab2_func.c$496$3$124 ==.
                                   3238 ;	C:\Users\Tim\Documents\LITEC\Lab2\lab2-func.c:496: score++;
      000A19 05*02            [12] 3239 	inc	_score
      000A1B E4               [12] 3240 	clr	a
      000A1C B5*02 0B         [24] 3241 	cjne	a,_score,00130$
      000A1F 05*03            [12] 3242 	inc	(_score + 1)
      000A21 80 07            [24] 3243 	sjmp	00130$
      000A23                       3244 00126$:
                           000A23  3245 	C$lab2_func.c$501$3$125 ==.
                                   3246 ;	C:\Users\Tim\Documents\LITEC\Lab2\lab2-func.c:501: BILED1 = 0;
      000A23 C2 B7            [12] 3247 	clr	_BILED1
                           000A25  3248 	C$lab2_func.c$502$3$125 ==.
                                   3249 ;	C:\Users\Tim\Documents\LITEC\Lab2\lab2-func.c:502: theBuzz();//TTTTTTTTTTTTT
      000A25 12r0Ar65         [24] 3250 	lcall	_theBuzz
                           000A28  3251 	C$lab2_func.c$503$3$125 ==.
                                   3252 ;	C:\Users\Tim\Documents\LITEC\Lab2\lab2-func.c:503: BILED1 = 1;
      000A28 D2 B7            [12] 3253 	setb	_BILED1
      000A2A                       3254 00130$:
                           000A2A  3255 	C$lab2_func.c$484$1$120 ==.
                                   3256 ;	C:\Users\Tim\Documents\LITEC\Lab2\lab2-func.c:484: for(i = 0; i < 5; i++)
      000A2A 05*05            [12] 3257 	inc	_i
      000A2C 74 FB            [12] 3258 	mov	a,#0x100 - 0x05
      000A2E 25*05            [12] 3259 	add	a,_i
      000A30 50 C9            [24] 3260 	jnc	00129$
                           000A32  3261 	C$lab2_func.c$507$1$120 ==.
                                   3262 ;	C:\Users\Tim\Documents\LITEC\Lab2\lab2-func.c:507: printf("score: %d\n", score);
      000A32 C0*02            [24] 3263 	push	_score
      000A34 C0*03            [24] 3264 	push	(_score + 1)
      000A36 74r44            [12] 3265 	mov	a,#___str_30
      000A38 C0 E0            [24] 3266 	push	acc
      000A3A 74s04            [12] 3267 	mov	a,#(___str_30 >> 8)
      000A3C C0 E0            [24] 3268 	push	acc
      000A3E 74 80            [12] 3269 	mov	a,#0x80
      000A40 C0 E0            [24] 3270 	push	acc
      000A42 12r00r00         [24] 3271 	lcall	_printf
      000A45 E5 81            [12] 3272 	mov	a,sp
      000A47 24 FB            [12] 3273 	add	a,#0xfb
      000A49 F5 81            [12] 3274 	mov	sp,a
                           000A4B  3275 	C$lab2_func.c$508$1$120 ==.
                                   3276 ;	C:\Users\Tim\Documents\LITEC\Lab2\lab2-func.c:508: theBuzz();
      000A4B 12r0Ar65         [24] 3277 	lcall	_theBuzz
                           000A4E  3278 	C$lab2_func.c$509$1$120 ==.
                                   3279 ;	C:\Users\Tim\Documents\LITEC\Lab2\lab2-func.c:509: clear();
      000A4E 12r01r58         [24] 3280 	lcall	_clear
                           000A51  3281 	C$lab2_func.c$510$1$120 ==.
                                   3282 ;	C:\Users\Tim\Documents\LITEC\Lab2\lab2-func.c:510: TR0 = 0; //Turn off everything
      000A51 C2 8C            [12] 3283 	clr	_TR0
                           000A53  3284 	C$lab2_func.c$511$1$120 ==.
                                   3285 ;	C:\Users\Tim\Documents\LITEC\Lab2\lab2-func.c:511: TMR0 = 0;
      000A53 E4               [12] 3286 	clr	a
      000A54 F5 8A            [12] 3287 	mov	((_TMR0 >> 0) & 0xFF),a
      000A56 F5 8C            [12] 3288 	mov	((_TMR0 >> 8) & 0xFF),a
                           000A58  3289 	C$lab2_func.c$512$1$120 ==.
                                   3290 ;	C:\Users\Tim\Documents\LITEC\Lab2\lab2-func.c:512: delay = 0;
      000A58 F5*23            [12] 3291 	mov	_delay,a
      000A5A F5*24            [12] 3292 	mov	(_delay + 1),a
                           000A5C  3293 	C$lab2_func.c$513$1$120 ==.
                                   3294 ;	C:\Users\Tim\Documents\LITEC\Lab2\lab2-func.c:513: blink_rate = 0;
      000A5C F5*21            [12] 3295 	mov	_blink_rate,a
      000A5E F5*22            [12] 3296 	mov	(_blink_rate + 1),a
                           000A60  3297 	C$lab2_func.c$514$1$120 ==.
                                   3298 ;	C:\Users\Tim\Documents\LITEC\Lab2\lab2-func.c:514: Counts = 0; 
      000A60 F5*00            [12] 3299 	mov	_Counts,a
      000A62 F5*01            [12] 3300 	mov	(_Counts + 1),a
                           000A64  3301 	C$lab2_func.c$515$1$120 ==.
                           000A64  3302 	XG$mode3$0$0 ==.
      000A64 22               [24] 3303 	ret
                                   3304 ;------------------------------------------------------------
                                   3305 ;Allocation info for local variables in function 'theBuzz'
                                   3306 ;------------------------------------------------------------
                           000A65  3307 	G$theBuzz$0$0 ==.
                           000A65  3308 	C$lab2_func.c$521$1$120 ==.
                                   3309 ;	C:\Users\Tim\Documents\LITEC\Lab2\lab2-func.c:521: void theBuzz(void)
                                   3310 ;	-----------------------------------------
                                   3311 ;	 function theBuzz
                                   3312 ;	-----------------------------------------
      000A65                       3313 _theBuzz:
                           000A65  3314 	C$lab2_func.c$523$1$127 ==.
                                   3315 ;	C:\Users\Tim\Documents\LITEC\Lab2\lab2-func.c:523: TMR0 = 0;
      000A65 E4               [12] 3316 	clr	a
      000A66 F5 8A            [12] 3317 	mov	((_TMR0 >> 0) & 0xFF),a
      000A68 F5 8C            [12] 3318 	mov	((_TMR0 >> 8) & 0xFF),a
                           000A6A  3319 	C$lab2_func.c$524$1$127 ==.
                                   3320 ;	C:\Users\Tim\Documents\LITEC\Lab2\lab2-func.c:524: TR0 = 1;
      000A6A D2 8C            [12] 3321 	setb	_TR0
                           000A6C  3322 	C$lab2_func.c$525$1$127 ==.
                                   3323 ;	C:\Users\Tim\Documents\LITEC\Lab2\lab2-func.c:525: Counts = 0;
      000A6C E4               [12] 3324 	clr	a
      000A6D F5*00            [12] 3325 	mov	_Counts,a
      000A6F F5*01            [12] 3326 	mov	(_Counts + 1),a
                           000A71  3327 	C$lab2_func.c$526$1$127 ==.
                                   3328 ;	C:\Users\Tim\Documents\LITEC\Lab2\lab2-func.c:526: while(Counts<337/2);
      000A71                       3329 00101$:
      000A71 C3               [12] 3330 	clr	c
      000A72 E5*00            [12] 3331 	mov	a,_Counts
      000A74 94 A8            [12] 3332 	subb	a,#0xa8
      000A76 E5*01            [12] 3333 	mov	a,(_Counts + 1)
      000A78 94 00            [12] 3334 	subb	a,#0x00
      000A7A 40 F5            [24] 3335 	jc	00101$
                           000A7C  3336 	C$lab2_func.c$527$1$127 ==.
                                   3337 ;	C:\Users\Tim\Documents\LITEC\Lab2\lab2-func.c:527: BUZZER = 0; //Turn Buzzer on
      000A7C C2 B6            [12] 3338 	clr	_BUZZER
                           000A7E  3339 	C$lab2_func.c$528$1$127 ==.
                                   3340 ;	C:\Users\Tim\Documents\LITEC\Lab2\lab2-func.c:528: while(Counts<337);
      000A7E                       3341 00104$:
      000A7E C3               [12] 3342 	clr	c
      000A7F E5*00            [12] 3343 	mov	a,_Counts
      000A81 94 51            [12] 3344 	subb	a,#0x51
      000A83 E5*01            [12] 3345 	mov	a,(_Counts + 1)
      000A85 94 01            [12] 3346 	subb	a,#0x01
      000A87 40 F5            [24] 3347 	jc	00104$
                           000A89  3348 	C$lab2_func.c$529$1$127 ==.
                                   3349 ;	C:\Users\Tim\Documents\LITEC\Lab2\lab2-func.c:529: BUZZER = 1;
      000A89 D2 B6            [12] 3350 	setb	_BUZZER
                           000A8B  3351 	C$lab2_func.c$530$1$127 ==.
                                   3352 ;	C:\Users\Tim\Documents\LITEC\Lab2\lab2-func.c:530: TR0 = 0;
      000A8B C2 8C            [12] 3353 	clr	_TR0
                           000A8D  3354 	C$lab2_func.c$532$1$127 ==.
                           000A8D  3355 	XG$theBuzz$0$0 ==.
      000A8D 22               [24] 3356 	ret
                                   3357 ;------------------------------------------------------------
                                   3358 ;Allocation info for local variables in function 'lightLED'
                                   3359 ;------------------------------------------------------------
                                   3360 ;num                       Allocated to registers r7 
                                   3361 ;------------------------------------------------------------
                           000A8E  3362 	G$lightLED$0$0 ==.
                           000A8E  3363 	C$lab2_func.c$535$1$127 ==.
                                   3364 ;	C:\Users\Tim\Documents\LITEC\Lab2\lab2-func.c:535: void lightLED(unsigned char num)
                                   3365 ;	-----------------------------------------
                                   3366 ;	 function lightLED
                                   3367 ;	-----------------------------------------
      000A8E                       3368 _lightLED:
      000A8E AF 82            [24] 3369 	mov	r7,dpl
                           000A90  3370 	C$lab2_func.c$537$1$129 ==.
                                   3371 ;	C:\Users\Tim\Documents\LITEC\Lab2\lab2-func.c:537: Counts = 0; //clear whole timer sys
      000A90 E4               [12] 3372 	clr	a
      000A91 F5*00            [12] 3373 	mov	_Counts,a
      000A93 F5*01            [12] 3374 	mov	(_Counts + 1),a
                           000A95  3375 	C$lab2_func.c$538$1$129 ==.
                                   3376 ;	C:\Users\Tim\Documents\LITEC\Lab2\lab2-func.c:538: TMR0 = 0;
      000A95 F5 8A            [12] 3377 	mov	((_TMR0 >> 0) & 0xFF),a
      000A97 F5 8C            [12] 3378 	mov	((_TMR0 >> 8) & 0xFF),a
                           000A99  3379 	C$lab2_func.c$539$1$129 ==.
                                   3380 ;	C:\Users\Tim\Documents\LITEC\Lab2\lab2-func.c:539: TR0 = 1; //start timer0
      000A99 D2 8C            [12] 3381 	setb	_TR0
                           000A9B  3382 	C$lab2_func.c$541$1$129 ==.
                                   3383 ;	C:\Users\Tim\Documents\LITEC\Lab2\lab2-func.c:541: while(Counts < speed/3);//give speed/3 between each light.
      000A9B                       3384 00101$:
      000A9B 75*00 03         [24] 3385 	mov	__divuint_PARM_2,#0x03
      000A9E 75*01 00         [24] 3386 	mov	(__divuint_PARM_2 + 1),#0x00
      000AA1 85*06 82         [24] 3387 	mov	dpl,_speed
      000AA4 85*07 83         [24] 3388 	mov	dph,(_speed + 1)
      000AA7 C0 07            [24] 3389 	push	ar7
      000AA9 12r00r00         [24] 3390 	lcall	__divuint
      000AAC AD 82            [24] 3391 	mov	r5,dpl
      000AAE AE 83            [24] 3392 	mov	r6,dph
      000AB0 D0 07            [24] 3393 	pop	ar7
      000AB2 C3               [12] 3394 	clr	c
      000AB3 E5*00            [12] 3395 	mov	a,_Counts
      000AB5 9D               [12] 3396 	subb	a,r5
      000AB6 E5*01            [12] 3397 	mov	a,(_Counts + 1)
      000AB8 9E               [12] 3398 	subb	a,r6
      000AB9 40 E0            [24] 3399 	jc	00101$
                           000ABB  3400 	C$lab2_func.c$543$1$129 ==.
                                   3401 ;	C:\Users\Tim\Documents\LITEC\Lab2\lab2-func.c:543: if(num == 0)
      000ABB EF               [12] 3402 	mov	a,r7
      000ABC 70 04            [24] 3403 	jnz	00113$
                           000ABE  3404 	C$lab2_func.c$544$1$129 ==.
                                   3405 ;	C:\Users\Tim\Documents\LITEC\Lab2\lab2-func.c:544: LED0 = 0;
      000ABE C2 A0            [12] 3406 	clr	_LED0
      000AC0 80 13            [24] 3407 	sjmp	00115$
      000AC2                       3408 00113$:
                           000AC2  3409 	C$lab2_func.c$545$1$129 ==.
                                   3410 ;	C:\Users\Tim\Documents\LITEC\Lab2\lab2-func.c:545: else if(num == 1)
      000AC2 BF 01 04         [24] 3411 	cjne	r7,#0x01,00110$
                           000AC5  3412 	C$lab2_func.c$546$1$129 ==.
                                   3413 ;	C:\Users\Tim\Documents\LITEC\Lab2\lab2-func.c:546: LED1 = 0;
      000AC5 C2 A2            [12] 3414 	clr	_LED1
      000AC7 80 0C            [24] 3415 	sjmp	00115$
      000AC9                       3416 00110$:
                           000AC9  3417 	C$lab2_func.c$547$1$129 ==.
                                   3418 ;	C:\Users\Tim\Documents\LITEC\Lab2\lab2-func.c:547: else if(num == 2)
      000AC9 BF 02 04         [24] 3419 	cjne	r7,#0x02,00107$
                           000ACC  3420 	C$lab2_func.c$548$1$129 ==.
                                   3421 ;	C:\Users\Tim\Documents\LITEC\Lab2\lab2-func.c:548: LED2 = 0;
      000ACC C2 A3            [12] 3422 	clr	_LED2
      000ACE 80 05            [24] 3423 	sjmp	00115$
      000AD0                       3424 00107$:
                           000AD0  3425 	C$lab2_func.c$549$1$129 ==.
                                   3426 ;	C:\Users\Tim\Documents\LITEC\Lab2\lab2-func.c:549: else if(num == 3)
      000AD0 BF 03 02         [24] 3427 	cjne	r7,#0x03,00115$
                           000AD3  3428 	C$lab2_func.c$550$1$129 ==.
                                   3429 ;	C:\Users\Tim\Documents\LITEC\Lab2\lab2-func.c:550: LED3 = 0;
      000AD3 C2 A5            [12] 3430 	clr	_LED3
                           000AD5  3431 	C$lab2_func.c$552$1$129 ==.
                                   3432 ;	C:\Users\Tim\Documents\LITEC\Lab2\lab2-func.c:552: while(Counts < speed/2+speed/3);
      000AD5                       3433 00115$:
      000AD5 AE*06            [24] 3434 	mov	r6,_speed
      000AD7 E5*07            [12] 3435 	mov	a,(_speed + 1)
      000AD9 C3               [12] 3436 	clr	c
      000ADA 13               [12] 3437 	rrc	a
      000ADB CE               [12] 3438 	xch	a,r6
      000ADC 13               [12] 3439 	rrc	a
      000ADD CE               [12] 3440 	xch	a,r6
      000ADE FF               [12] 3441 	mov	r7,a
      000ADF 75*00 03         [24] 3442 	mov	__divuint_PARM_2,#0x03
      000AE2 75*01 00         [24] 3443 	mov	(__divuint_PARM_2 + 1),#0x00
      000AE5 85*06 82         [24] 3444 	mov	dpl,_speed
      000AE8 85*07 83         [24] 3445 	mov	dph,(_speed + 1)
      000AEB C0 07            [24] 3446 	push	ar7
      000AED C0 06            [24] 3447 	push	ar6
      000AEF 12r00r00         [24] 3448 	lcall	__divuint
      000AF2 AC 82            [24] 3449 	mov	r4,dpl
      000AF4 AD 83            [24] 3450 	mov	r5,dph
      000AF6 D0 06            [24] 3451 	pop	ar6
      000AF8 D0 07            [24] 3452 	pop	ar7
      000AFA EC               [12] 3453 	mov	a,r4
      000AFB 2E               [12] 3454 	add	a,r6
      000AFC FE               [12] 3455 	mov	r6,a
      000AFD ED               [12] 3456 	mov	a,r5
      000AFE 3F               [12] 3457 	addc	a,r7
      000AFF FF               [12] 3458 	mov	r7,a
      000B00 C3               [12] 3459 	clr	c
      000B01 E5*00            [12] 3460 	mov	a,_Counts
      000B03 9E               [12] 3461 	subb	a,r6
      000B04 E5*01            [12] 3462 	mov	a,(_Counts + 1)
      000B06 9F               [12] 3463 	subb	a,r7
      000B07 40 CC            [24] 3464 	jc	00115$
                           000B09  3465 	C$lab2_func.c$553$1$129 ==.
                                   3466 ;	C:\Users\Tim\Documents\LITEC\Lab2\lab2-func.c:553: clear();
      000B09 12r01r58         [24] 3467 	lcall	_clear
                           000B0C  3468 	C$lab2_func.c$554$1$129 ==.
                                   3469 ;	C:\Users\Tim\Documents\LITEC\Lab2\lab2-func.c:554: TR0 = 0;//stop the timer0
      000B0C C2 8C            [12] 3470 	clr	_TR0
                           000B0E  3471 	C$lab2_func.c$555$1$129 ==.
                                   3472 ;	C:\Users\Tim\Documents\LITEC\Lab2\lab2-func.c:555: Counts = 0;
      000B0E E4               [12] 3473 	clr	a
      000B0F F5*00            [12] 3474 	mov	_Counts,a
      000B11 F5*01            [12] 3475 	mov	(_Counts + 1),a
                           000B13  3476 	C$lab2_func.c$556$1$129 ==.
                           000B13  3477 	XG$lightLED$0$0 ==.
      000B13 22               [24] 3478 	ret
                                   3479 ;------------------------------------------------------------
                                   3480 ;Allocation info for local variables in function 'lightLEDmode3'
                                   3481 ;------------------------------------------------------------
                                   3482 ;num                       Allocated to registers r7 
                                   3483 ;------------------------------------------------------------
                           000B14  3484 	G$lightLEDmode3$0$0 ==.
                           000B14  3485 	C$lab2_func.c$561$1$129 ==.
                                   3486 ;	C:\Users\Tim\Documents\LITEC\Lab2\lab2-func.c:561: void lightLEDmode3(unsigned char num)
                                   3487 ;	-----------------------------------------
                                   3488 ;	 function lightLEDmode3
                                   3489 ;	-----------------------------------------
      000B14                       3490 _lightLEDmode3:
      000B14 AF 82            [24] 3491 	mov	r7,dpl
                           000B16  3492 	C$lab2_func.c$563$1$131 ==.
                                   3493 ;	C:\Users\Tim\Documents\LITEC\Lab2\lab2-func.c:563: Counts = 0; //clear whole timer sys
      000B16 E4               [12] 3494 	clr	a
      000B17 F5*00            [12] 3495 	mov	_Counts,a
      000B19 F5*01            [12] 3496 	mov	(_Counts + 1),a
                           000B1B  3497 	C$lab2_func.c$564$1$131 ==.
                                   3498 ;	C:\Users\Tim\Documents\LITEC\Lab2\lab2-func.c:564: TMR0 = 0;
      000B1B F5 8A            [12] 3499 	mov	((_TMR0 >> 0) & 0xFF),a
      000B1D F5 8C            [12] 3500 	mov	((_TMR0 >> 8) & 0xFF),a
                           000B1F  3501 	C$lab2_func.c$567$1$131 ==.
                                   3502 ;	C:\Users\Tim\Documents\LITEC\Lab2\lab2-func.c:567: while(Counts < speed*delay);//give speed/3 between each light.
      000B1F                       3503 00101$:
      000B1F 85*23*00         [24] 3504 	mov	__mulint_PARM_2,_delay
      000B22 85*24*01         [24] 3505 	mov	(__mulint_PARM_2 + 1),(_delay + 1)
      000B25 85*06 82         [24] 3506 	mov	dpl,_speed
      000B28 85*07 83         [24] 3507 	mov	dph,(_speed + 1)
      000B2B C0 07            [24] 3508 	push	ar7
      000B2D 12r00r00         [24] 3509 	lcall	__mulint
      000B30 AD 82            [24] 3510 	mov	r5,dpl
      000B32 AE 83            [24] 3511 	mov	r6,dph
      000B34 D0 07            [24] 3512 	pop	ar7
      000B36 C3               [12] 3513 	clr	c
      000B37 E5*00            [12] 3514 	mov	a,_Counts
      000B39 9D               [12] 3515 	subb	a,r5
      000B3A E5*01            [12] 3516 	mov	a,(_Counts + 1)
      000B3C 9E               [12] 3517 	subb	a,r6
      000B3D 40 E0            [24] 3518 	jc	00101$
                           000B3F  3519 	C$lab2_func.c$569$1$131 ==.
                                   3520 ;	C:\Users\Tim\Documents\LITEC\Lab2\lab2-func.c:569: if(num == 0)
      000B3F EF               [12] 3521 	mov	a,r7
      000B40 70 04            [24] 3522 	jnz	00113$
                           000B42  3523 	C$lab2_func.c$570$1$131 ==.
                                   3524 ;	C:\Users\Tim\Documents\LITEC\Lab2\lab2-func.c:570: LED0 = 0;
      000B42 C2 A0            [12] 3525 	clr	_LED0
      000B44 80 13            [24] 3526 	sjmp	00114$
      000B46                       3527 00113$:
                           000B46  3528 	C$lab2_func.c$571$1$131 ==.
                                   3529 ;	C:\Users\Tim\Documents\LITEC\Lab2\lab2-func.c:571: else if(num == 1)
      000B46 BF 01 04         [24] 3530 	cjne	r7,#0x01,00110$
                           000B49  3531 	C$lab2_func.c$572$1$131 ==.
                                   3532 ;	C:\Users\Tim\Documents\LITEC\Lab2\lab2-func.c:572: LED1 = 0;
      000B49 C2 A2            [12] 3533 	clr	_LED1
      000B4B 80 0C            [24] 3534 	sjmp	00114$
      000B4D                       3535 00110$:
                           000B4D  3536 	C$lab2_func.c$573$1$131 ==.
                                   3537 ;	C:\Users\Tim\Documents\LITEC\Lab2\lab2-func.c:573: else if(num == 2)
      000B4D BF 02 04         [24] 3538 	cjne	r7,#0x02,00107$
                           000B50  3539 	C$lab2_func.c$574$1$131 ==.
                                   3540 ;	C:\Users\Tim\Documents\LITEC\Lab2\lab2-func.c:574: LED2 = 0;
      000B50 C2 A3            [12] 3541 	clr	_LED2
      000B52 80 05            [24] 3542 	sjmp	00114$
      000B54                       3543 00107$:
                           000B54  3544 	C$lab2_func.c$575$1$131 ==.
                                   3545 ;	C:\Users\Tim\Documents\LITEC\Lab2\lab2-func.c:575: else if(num == 3)
      000B54 BF 03 02         [24] 3546 	cjne	r7,#0x03,00114$
                           000B57  3547 	C$lab2_func.c$576$1$131 ==.
                                   3548 ;	C:\Users\Tim\Documents\LITEC\Lab2\lab2-func.c:576: LED3 = 0;
      000B57 C2 A5            [12] 3549 	clr	_LED3
      000B59                       3550 00114$:
                           000B59  3551 	C$lab2_func.c$578$1$131 ==.
                                   3552 ;	C:\Users\Tim\Documents\LITEC\Lab2\lab2-func.c:578: Counts = 0;
      000B59 E4               [12] 3553 	clr	a
      000B5A F5*00            [12] 3554 	mov	_Counts,a
      000B5C F5*01            [12] 3555 	mov	(_Counts + 1),a
                           000B5E  3556 	C$lab2_func.c$579$1$131 ==.
                                   3557 ;	C:\Users\Tim\Documents\LITEC\Lab2\lab2-func.c:579: while(Counts < speed*(blink_rate));
      000B5E                       3558 00115$:
      000B5E 85*21*00         [24] 3559 	mov	__mulint_PARM_2,_blink_rate
      000B61 85*22*01         [24] 3560 	mov	(__mulint_PARM_2 + 1),(_blink_rate + 1)
      000B64 85*06 82         [24] 3561 	mov	dpl,_speed
      000B67 85*07 83         [24] 3562 	mov	dph,(_speed + 1)
      000B6A 12r00r00         [24] 3563 	lcall	__mulint
      000B6D AE 82            [24] 3564 	mov	r6,dpl
      000B6F AF 83            [24] 3565 	mov	r7,dph
      000B71 C3               [12] 3566 	clr	c
      000B72 E5*00            [12] 3567 	mov	a,_Counts
      000B74 9E               [12] 3568 	subb	a,r6
      000B75 E5*01            [12] 3569 	mov	a,(_Counts + 1)
      000B77 9F               [12] 3570 	subb	a,r7
      000B78 40 E4            [24] 3571 	jc	00115$
                           000B7A  3572 	C$lab2_func.c$580$1$131 ==.
                                   3573 ;	C:\Users\Tim\Documents\LITEC\Lab2\lab2-func.c:580: clear();
      000B7A 12r01r58         [24] 3574 	lcall	_clear
                           000B7D  3575 	C$lab2_func.c$582$1$131 ==.
                           000B7D  3576 	XG$lightLEDmode3$0$0 ==.
      000B7D 22               [24] 3577 	ret
                                   3578 ;------------------------------------------------------------
                                   3579 ;Allocation info for local variables in function 'buttonPress'
                                   3580 ;------------------------------------------------------------
                           000B7E  3581 	G$buttonPress$0$0 ==.
                           000B7E  3582 	C$lab2_func.c$586$1$131 ==.
                                   3583 ;	C:\Users\Tim\Documents\LITEC\Lab2\lab2-func.c:586: unsigned char buttonPress(void)
                                   3584 ;	-----------------------------------------
                                   3585 ;	 function buttonPress
                                   3586 ;	-----------------------------------------
      000B7E                       3587 _buttonPress:
                           000B7E  3588 	C$lab2_func.c$588$1$133 ==.
                                   3589 ;	C:\Users\Tim\Documents\LITEC\Lab2\lab2-func.c:588: currCounts = Counts;
      000B7E 85*00*26         [24] 3590 	mov	_currCounts,_Counts
      000B81 85*01*27         [24] 3591 	mov	(_currCounts + 1),(_Counts + 1)
                           000B84  3592 	C$lab2_func.c$589$1$133 ==.
                                   3593 ;	C:\Users\Tim\Documents\LITEC\Lab2\lab2-func.c:589: while(Counts < 7+currCounts);
      000B84                       3594 00101$:
      000B84 74 07            [12] 3595 	mov	a,#0x07
      000B86 25*26            [12] 3596 	add	a,_currCounts
      000B88 FE               [12] 3597 	mov	r6,a
      000B89 E4               [12] 3598 	clr	a
      000B8A 35*27            [12] 3599 	addc	a,(_currCounts + 1)
      000B8C FF               [12] 3600 	mov	r7,a
      000B8D C3               [12] 3601 	clr	c
      000B8E E5*00            [12] 3602 	mov	a,_Counts
      000B90 9E               [12] 3603 	subb	a,r6
      000B91 E5*01            [12] 3604 	mov	a,(_Counts + 1)
      000B93 9F               [12] 3605 	subb	a,r7
      000B94 40 EE            [24] 3606 	jc	00101$
                           000B96  3607 	C$lab2_func.c$590$1$133 ==.
                                   3608 ;	C:\Users\Tim\Documents\LITEC\Lab2\lab2-func.c:590: if(!PB0 && PB1 && PB2 && PB3)
      000B96 20 B2 27         [24] 3609 	jb	_PB0,00135$
      000B99 30 B4 24         [24] 3610 	jnb	_PB1,00135$
      000B9C 30 B3 21         [24] 3611 	jnb	_PB2,00135$
      000B9F 30 B5 1E         [24] 3612 	jnb	_PB3,00135$
                           000BA2  3613 	C$lab2_func.c$592$2$134 ==.
                                   3614 ;	C:\Users\Tim\Documents\LITEC\Lab2\lab2-func.c:592: printf("PB0 \r\n");
      000BA2 74r4F            [12] 3615 	mov	a,#___str_31
      000BA4 C0 E0            [24] 3616 	push	acc
      000BA6 74s04            [12] 3617 	mov	a,#(___str_31 >> 8)
      000BA8 C0 E0            [24] 3618 	push	acc
      000BAA 74 80            [12] 3619 	mov	a,#0x80
      000BAC C0 E0            [24] 3620 	push	acc
      000BAE 12r00r00         [24] 3621 	lcall	_printf
      000BB1 15 81            [12] 3622 	dec	sp
      000BB3 15 81            [12] 3623 	dec	sp
      000BB5 15 81            [12] 3624 	dec	sp
                           000BB7  3625 	C$lab2_func.c$593$2$134 ==.
                                   3626 ;	C:\Users\Tim\Documents\LITEC\Lab2\lab2-func.c:593: while(!PB0);
      000BB7                       3627 00104$:
      000BB7 30 B2 FD         [24] 3628 	jnb	_PB0,00104$
                           000BBA  3629 	C$lab2_func.c$594$2$134 ==.
                                   3630 ;	C:\Users\Tim\Documents\LITEC\Lab2\lab2-func.c:594: return 0;
      000BBA 75 82 00         [24] 3631 	mov	dpl,#0x00
      000BBD 02r0Cr3E         [24] 3632 	ljmp	00140$
      000BC0                       3633 00135$:
                           000BC0  3634 	C$lab2_func.c$596$1$133 ==.
                                   3635 ;	C:\Users\Tim\Documents\LITEC\Lab2\lab2-func.c:596: else if(PB0 && !PB1 && PB2 && PB3)
      000BC0 30 B2 26         [24] 3636 	jnb	_PB0,00129$
      000BC3 20 B4 23         [24] 3637 	jb	_PB1,00129$
      000BC6 30 B3 20         [24] 3638 	jnb	_PB2,00129$
      000BC9 30 B5 1D         [24] 3639 	jnb	_PB3,00129$
                           000BCC  3640 	C$lab2_func.c$598$2$135 ==.
                                   3641 ;	C:\Users\Tim\Documents\LITEC\Lab2\lab2-func.c:598: printf("PB1 \r\n");
      000BCC 74r56            [12] 3642 	mov	a,#___str_32
      000BCE C0 E0            [24] 3643 	push	acc
      000BD0 74s04            [12] 3644 	mov	a,#(___str_32 >> 8)
      000BD2 C0 E0            [24] 3645 	push	acc
      000BD4 74 80            [12] 3646 	mov	a,#0x80
      000BD6 C0 E0            [24] 3647 	push	acc
      000BD8 12r00r00         [24] 3648 	lcall	_printf
      000BDB 15 81            [12] 3649 	dec	sp
      000BDD 15 81            [12] 3650 	dec	sp
      000BDF 15 81            [12] 3651 	dec	sp
                           000BE1  3652 	C$lab2_func.c$599$2$135 ==.
                                   3653 ;	C:\Users\Tim\Documents\LITEC\Lab2\lab2-func.c:599: while(!PB1);
      000BE1                       3654 00107$:
      000BE1 30 B4 FD         [24] 3655 	jnb	_PB1,00107$
                           000BE4  3656 	C$lab2_func.c$600$2$135 ==.
                                   3657 ;	C:\Users\Tim\Documents\LITEC\Lab2\lab2-func.c:600: return 1;	
      000BE4 75 82 01         [24] 3658 	mov	dpl,#0x01
      000BE7 80 55            [24] 3659 	sjmp	00140$
      000BE9                       3660 00129$:
                           000BE9  3661 	C$lab2_func.c$602$1$133 ==.
                                   3662 ;	C:\Users\Tim\Documents\LITEC\Lab2\lab2-func.c:602: else if(PB0 && PB1 && !PB2 && PB3)
      000BE9 30 B2 26         [24] 3663 	jnb	_PB0,00123$
      000BEC 30 B4 23         [24] 3664 	jnb	_PB1,00123$
      000BEF 20 B3 20         [24] 3665 	jb	_PB2,00123$
      000BF2 30 B5 1D         [24] 3666 	jnb	_PB3,00123$
                           000BF5  3667 	C$lab2_func.c$604$2$136 ==.
                                   3668 ;	C:\Users\Tim\Documents\LITEC\Lab2\lab2-func.c:604: printf("PB2 \r\n");
      000BF5 74r5D            [12] 3669 	mov	a,#___str_33
      000BF7 C0 E0            [24] 3670 	push	acc
      000BF9 74s04            [12] 3671 	mov	a,#(___str_33 >> 8)
      000BFB C0 E0            [24] 3672 	push	acc
      000BFD 74 80            [12] 3673 	mov	a,#0x80
      000BFF C0 E0            [24] 3674 	push	acc
      000C01 12r00r00         [24] 3675 	lcall	_printf
      000C04 15 81            [12] 3676 	dec	sp
      000C06 15 81            [12] 3677 	dec	sp
      000C08 15 81            [12] 3678 	dec	sp
                           000C0A  3679 	C$lab2_func.c$605$2$136 ==.
                                   3680 ;	C:\Users\Tim\Documents\LITEC\Lab2\lab2-func.c:605: while(!PB2);
      000C0A                       3681 00110$:
      000C0A 30 B3 FD         [24] 3682 	jnb	_PB2,00110$
                           000C0D  3683 	C$lab2_func.c$606$2$136 ==.
                                   3684 ;	C:\Users\Tim\Documents\LITEC\Lab2\lab2-func.c:606: return 2;
      000C0D 75 82 02         [24] 3685 	mov	dpl,#0x02
      000C10 80 2C            [24] 3686 	sjmp	00140$
      000C12                       3687 00123$:
                           000C12  3688 	C$lab2_func.c$608$1$133 ==.
                                   3689 ;	C:\Users\Tim\Documents\LITEC\Lab2\lab2-func.c:608: else if(PB0 && PB1 && PB2 && !PB3)
      000C12 30 B2 26         [24] 3690 	jnb	_PB0,00117$
      000C15 30 B4 23         [24] 3691 	jnb	_PB1,00117$
      000C18 30 B3 20         [24] 3692 	jnb	_PB2,00117$
      000C1B 20 B5 1D         [24] 3693 	jb	_PB3,00117$
                           000C1E  3694 	C$lab2_func.c$610$2$137 ==.
                                   3695 ;	C:\Users\Tim\Documents\LITEC\Lab2\lab2-func.c:610: printf("PB3 \r\n");
      000C1E 74r64            [12] 3696 	mov	a,#___str_34
      000C20 C0 E0            [24] 3697 	push	acc
      000C22 74s04            [12] 3698 	mov	a,#(___str_34 >> 8)
      000C24 C0 E0            [24] 3699 	push	acc
      000C26 74 80            [12] 3700 	mov	a,#0x80
      000C28 C0 E0            [24] 3701 	push	acc
      000C2A 12r00r00         [24] 3702 	lcall	_printf
      000C2D 15 81            [12] 3703 	dec	sp
      000C2F 15 81            [12] 3704 	dec	sp
      000C31 15 81            [12] 3705 	dec	sp
                           000C33  3706 	C$lab2_func.c$611$2$137 ==.
                                   3707 ;	C:\Users\Tim\Documents\LITEC\Lab2\lab2-func.c:611: while(!PB3);
      000C33                       3708 00113$:
      000C33 30 B5 FD         [24] 3709 	jnb	_PB3,00113$
                           000C36  3710 	C$lab2_func.c$612$2$137 ==.
                                   3711 ;	C:\Users\Tim\Documents\LITEC\Lab2\lab2-func.c:612: return 3;
      000C36 75 82 03         [24] 3712 	mov	dpl,#0x03
      000C39 80 03            [24] 3713 	sjmp	00140$
      000C3B                       3714 00117$:
                           000C3B  3715 	C$lab2_func.c$615$1$133 ==.
                                   3716 ;	C:\Users\Tim\Documents\LITEC\Lab2\lab2-func.c:615: return 4;		
      000C3B 75 82 04         [24] 3717 	mov	dpl,#0x04
      000C3E                       3718 00140$:
                           000C3E  3719 	C$lab2_func.c$616$1$133 ==.
                           000C3E  3720 	XG$buttonPress$0$0 ==.
      000C3E 22               [24] 3721 	ret
                                   3722 ;------------------------------------------------------------
                                   3723 ;Allocation info for local variables in function 'game'
                                   3724 ;------------------------------------------------------------
                           000C3F  3725 	G$game$0$0 ==.
                           000C3F  3726 	C$lab2_func.c$619$1$133 ==.
                                   3727 ;	C:\Users\Tim\Documents\LITEC\Lab2\lab2-func.c:619: void game(void) {
                                   3728 ;	-----------------------------------------
                                   3729 ;	 function game
                                   3730 ;	-----------------------------------------
      000C3F                       3731 _game:
                           000C3F  3732 	C$lab2_func.c$621$1$139 ==.
                                   3733 ;	C:\Users\Tim\Documents\LITEC\Lab2\lab2-func.c:621: for (i = 0; i < 8; i++) //8 sequence of the game
      000C3F 75*05 00         [24] 3734 	mov	_i,#0x00
      000C42                       3735 00141$:
                           000C42  3736 	C$lab2_func.c$624$2$140 ==.
                                   3737 ;	C:\Users\Tim\Documents\LITEC\Lab2\lab2-func.c:624: for (seq = 0; seq < i || seq == i; seq++)
      000C42 75*1A 00         [24] 3738 	mov	_seq,#0x00
      000C45                       3739 00132$:
      000C45 C3               [12] 3740 	clr	c
      000C46 E5*1A            [12] 3741 	mov	a,_seq
      000C48 95*05            [12] 3742 	subb	a,_i
      000C4A 40 05            [24] 3743 	jc	00131$
      000C4C E5*05            [12] 3744 	mov	a,_i
      000C4E B5*1A 22         [24] 3745 	cjne	a,_seq,00102$
      000C51                       3746 00131$:
                           000C51  3747 	C$lab2_func.c$625$2$140 ==.
                                   3748 ;	C:\Users\Tim\Documents\LITEC\Lab2\lab2-func.c:625: for (rep = 1; rep <= times[seq]; rep++)
      000C51 75*1B 01         [24] 3749 	mov	_rep,#0x01
      000C54                       3750 00128$:
      000C54 E5*1A            [12] 3751 	mov	a,_seq
      000C56 24r10            [12] 3752 	add	a,#_times
      000C58 F9               [12] 3753 	mov	r1,a
      000C59 87 07            [24] 3754 	mov	ar7,@r1
      000C5B C3               [12] 3755 	clr	c
      000C5C EF               [12] 3756 	mov	a,r7
      000C5D 95*1B            [12] 3757 	subb	a,_rep
      000C5F 40 0E            [24] 3758 	jc	00133$
                           000C61  3759 	C$lab2_func.c$626$2$140 ==.
                                   3760 ;	C:\Users\Tim\Documents\LITEC\Lab2\lab2-func.c:626: lightLED(light[seq]);
      000C61 E5*1A            [12] 3761 	mov	a,_seq
      000C63 24r08            [12] 3762 	add	a,#_light
      000C65 F9               [12] 3763 	mov	r1,a
      000C66 87 82            [24] 3764 	mov	dpl,@r1
      000C68 12r0Ar8E         [24] 3765 	lcall	_lightLED
                           000C6B  3766 	C$lab2_func.c$625$2$140 ==.
                                   3767 ;	C:\Users\Tim\Documents\LITEC\Lab2\lab2-func.c:625: for (rep = 1; rep <= times[seq]; rep++)
      000C6B 05*1B            [12] 3768 	inc	_rep
      000C6D 80 E5            [24] 3769 	sjmp	00128$
      000C6F                       3770 00133$:
                           000C6F  3771 	C$lab2_func.c$624$2$140 ==.
                                   3772 ;	C:\Users\Tim\Documents\LITEC\Lab2\lab2-func.c:624: for (seq = 0; seq < i || seq == i; seq++)
      000C6F 05*1A            [12] 3773 	inc	_seq
      000C71 80 D2            [24] 3774 	sjmp	00132$
      000C73                       3775 00102$:
                           000C73  3776 	C$lab2_func.c$627$2$140 ==.
                                   3777 ;	C:\Users\Tim\Documents\LITEC\Lab2\lab2-func.c:627: theBuzz();//time to make selection	
      000C73 12r0Ar65         [24] 3778 	lcall	_theBuzz
                           000C76  3779 	C$lab2_func.c$630$2$140 ==.
                                   3780 ;	C:\Users\Tim\Documents\LITEC\Lab2\lab2-func.c:630: Counts = 0;
      000C76 E4               [12] 3781 	clr	a
      000C77 F5*00            [12] 3782 	mov	_Counts,a
      000C79 F5*01            [12] 3783 	mov	(_Counts + 1),a
                           000C7B  3784 	C$lab2_func.c$631$2$140 ==.
                                   3785 ;	C:\Users\Tim\Documents\LITEC\Lab2\lab2-func.c:631: TMR0 = 0;
      000C7B F5 8A            [12] 3786 	mov	((_TMR0 >> 0) & 0xFF),a
      000C7D F5 8C            [12] 3787 	mov	((_TMR0 >> 8) & 0xFF),a
                           000C7F  3788 	C$lab2_func.c$632$2$140 ==.
                                   3789 ;	C:\Users\Tim\Documents\LITEC\Lab2\lab2-func.c:632: TR0 = 1;
      000C7F D2 8C            [12] 3790 	setb	_TR0
                           000C81  3791 	C$lab2_func.c$635$2$140 ==.
                                   3792 ;	C:\Users\Tim\Documents\LITEC\Lab2\lab2-func.c:635: for (seq = 0; seq < i || seq == i; seq++)
      000C81 75*1A 00         [24] 3793 	mov	_seq,#0x00
      000C84                       3794 00139$:
      000C84 C3               [12] 3795 	clr	c
      000C85 E5*1A            [12] 3796 	mov	a,_seq
      000C87 95*05            [12] 3797 	subb	a,_i
      000C89 40 0A            [24] 3798 	jc	00138$
      000C8B E5*05            [12] 3799 	mov	a,_i
      000C8D B5*1A 02         [24] 3800 	cjne	a,_seq,00207$
      000C90 80 03            [24] 3801 	sjmp	00208$
      000C92                       3802 00207$:
      000C92 02r0Dr47         [24] 3803 	ljmp	00117$
      000C95                       3804 00208$:
      000C95                       3805 00138$:
                           000C95  3806 	C$lab2_func.c$637$3$141 ==.
                                   3807 ;	C:\Users\Tim\Documents\LITEC\Lab2\lab2-func.c:637: for (rep = 1; rep <= times[seq]; rep++)
      000C95 75*1B 01         [24] 3808 	mov	_rep,#0x01
      000C98                       3809 00135$:
      000C98 E5*1A            [12] 3810 	mov	a,_seq
      000C9A 24r10            [12] 3811 	add	a,#_times
      000C9C F9               [12] 3812 	mov	r1,a
      000C9D 87 07            [24] 3813 	mov	ar7,@r1
      000C9F C3               [12] 3814 	clr	c
      000CA0 EF               [12] 3815 	mov	a,r7
      000CA1 95*1B            [12] 3816 	subb	a,_rep
      000CA3 50 03            [24] 3817 	jnc	00209$
      000CA5 02r0Dr34         [24] 3818 	ljmp	00113$
      000CA8                       3819 00209$:
                           000CA8  3820 	C$lab2_func.c$639$4$142 ==.
                                   3821 ;	C:\Users\Tim\Documents\LITEC\Lab2\lab2-func.c:639: do
      000CA8                       3822 00108$:
                           000CA8  3823 	C$lab2_func.c$641$5$143 ==.
                                   3824 ;	C:\Users\Tim\Documents\LITEC\Lab2\lab2-func.c:641: if (Counts >(i + 1)*speed)
      000CA8 AE*05            [24] 3825 	mov	r6,_i
      000CAA 7F 00            [12] 3826 	mov	r7,#0x00
      000CAC 0E               [12] 3827 	inc	r6
      000CAD BE 00 01         [24] 3828 	cjne	r6,#0x00,00210$
      000CB0 0F               [12] 3829 	inc	r7
      000CB1                       3830 00210$:
      000CB1 8E 82            [24] 3831 	mov	dpl,r6
      000CB3 8F 83            [24] 3832 	mov	dph,r7
      000CB5 85*06*00         [24] 3833 	mov	__mulint_PARM_2,_speed
      000CB8 85*07*01         [24] 3834 	mov	(__mulint_PARM_2 + 1),(_speed + 1)
      000CBB 12r00r00         [24] 3835 	lcall	__mulint
      000CBE AE 82            [24] 3836 	mov	r6,dpl
      000CC0 AF 83            [24] 3837 	mov	r7,dph
      000CC2 C3               [12] 3838 	clr	c
      000CC3 EE               [12] 3839 	mov	a,r6
      000CC4 95*00            [12] 3840 	subb	a,_Counts
      000CC6 EF               [12] 3841 	mov	a,r7
      000CC7 95*01            [12] 3842 	subb	a,(_Counts + 1)
      000CC9 50 17            [24] 3843 	jnc	00109$
                           000CCB  3844 	C$lab2_func.c$643$6$144 ==.
                                   3845 ;	C:\Users\Tim\Documents\LITEC\Lab2\lab2-func.c:643: printf("TIME OUT \r\n");
      000CCB 74rC4            [12] 3846 	mov	a,#___str_9
      000CCD C0 E0            [24] 3847 	push	acc
      000CCF 74s01            [12] 3848 	mov	a,#(___str_9 >> 8)
      000CD1 C0 E0            [24] 3849 	push	acc
      000CD3 74 80            [12] 3850 	mov	a,#0x80
      000CD5 C0 E0            [24] 3851 	push	acc
      000CD7 12r00r00         [24] 3852 	lcall	_printf
      000CDA 15 81            [12] 3853 	dec	sp
      000CDC 15 81            [12] 3854 	dec	sp
      000CDE 15 81            [12] 3855 	dec	sp
                           000CE0  3856 	C$lab2_func.c$644$6$144 ==.
                                   3857 ;	C:\Users\Tim\Documents\LITEC\Lab2\lab2-func.c:644: break; //out off all loop
      000CE0 80 0C            [24] 3858 	sjmp	00110$
      000CE2                       3859 00109$:
                           000CE2  3860 	C$lab2_func.c$646$4$142 ==.
                                   3861 ;	C:\Users\Tim\Documents\LITEC\Lab2\lab2-func.c:646: } while (PB0 && PB1 && PB2 && PB3);//TTTTTTTTTTTTT
      000CE2 30 B2 09         [24] 3862 	jnb	_PB0,00110$
      000CE5 30 B4 06         [24] 3863 	jnb	_PB1,00110$
      000CE8 30 B3 03         [24] 3864 	jnb	_PB2,00110$
      000CEB 20 B5 BA         [24] 3865 	jb	_PB3,00108$
      000CEE                       3866 00110$:
                           000CEE  3867 	C$lab2_func.c$647$4$142 ==.
                                   3868 ;	C:\Users\Tim\Documents\LITEC\Lab2\lab2-func.c:647: currLED = buttonPress();
      000CEE 12r0Br7E         [24] 3869 	lcall	_buttonPress
      000CF1 85 82*1C         [24] 3870 	mov	_currLED,dpl
                           000CF4  3871 	C$lab2_func.c$648$4$142 ==.
                                   3872 ;	C:\Users\Tim\Documents\LITEC\Lab2\lab2-func.c:648: if (currLED != light[seq])
      000CF4 E5*1A            [12] 3873 	mov	a,_seq
      000CF6 24r08            [12] 3874 	add	a,#_light
      000CF8 F9               [12] 3875 	mov	r1,a
      000CF9 E7               [12] 3876 	mov	a,@r1
      000CFA FF               [12] 3877 	mov	r7,a
      000CFB B5*1C 02         [24] 3878 	cjne	a,_currLED,00216$
      000CFE 80 2F            [24] 3879 	sjmp	00136$
      000D00                       3880 00216$:
                           000D00  3881 	C$lab2_func.c$650$5$145 ==.
                                   3882 ;	C:\Users\Tim\Documents\LITEC\Lab2\lab2-func.c:650: alive = 0;//you are dead
      000D00 E4               [12] 3883 	clr	a
      000D01 F5*18            [12] 3884 	mov	_alive,a
      000D03 F5*19            [12] 3885 	mov	(_alive + 1),a
                           000D05  3886 	C$lab2_func.c$651$5$145 ==.
                                   3887 ;	C:\Users\Tim\Documents\LITEC\Lab2\lab2-func.c:651: printf("GAME OVER, you pressed %u,and your score is %u \r\n", currLED, score);
      000D05 AE*1C            [24] 3888 	mov	r6,_currLED
      000D07 7F 00            [12] 3889 	mov	r7,#0x00
      000D09 C0*02            [24] 3890 	push	_score
      000D0B C0*03            [24] 3891 	push	(_score + 1)
      000D0D C0 06            [24] 3892 	push	ar6
      000D0F C0 07            [24] 3893 	push	ar7
      000D11 74rD0            [12] 3894 	mov	a,#___str_10
      000D13 C0 E0            [24] 3895 	push	acc
      000D15 74s01            [12] 3896 	mov	a,#(___str_10 >> 8)
      000D17 C0 E0            [24] 3897 	push	acc
      000D19 74 80            [12] 3898 	mov	a,#0x80
      000D1B C0 E0            [24] 3899 	push	acc
      000D1D 12r00r00         [24] 3900 	lcall	_printf
      000D20 E5 81            [12] 3901 	mov	a,sp
      000D22 24 F9            [12] 3902 	add	a,#0xf9
      000D24 F5 81            [12] 3903 	mov	sp,a
                           000D26  3904 	C$lab2_func.c$653$5$145 ==.
                                   3905 ;	C:\Users\Tim\Documents\LITEC\Lab2\lab2-func.c:653: BILED1 = 0;
      000D26 C2 B7            [12] 3906 	clr	_BILED1
                           000D28  3907 	C$lab2_func.c$654$5$145 ==.
                                   3908 ;	C:\Users\Tim\Documents\LITEC\Lab2\lab2-func.c:654: theBuzz();//TTTTTTTTTTTTT
      000D28 12r0Ar65         [24] 3909 	lcall	_theBuzz
                           000D2B  3910 	C$lab2_func.c$655$5$145 ==.
                                   3911 ;	C:\Users\Tim\Documents\LITEC\Lab2\lab2-func.c:655: BILED1 = 1;
      000D2B D2 B7            [12] 3912 	setb	_BILED1
                           000D2D  3913 	C$lab2_func.c$656$5$145 ==.
                                   3914 ;	C:\Users\Tim\Documents\LITEC\Lab2\lab2-func.c:656: break;
      000D2D 80 05            [24] 3915 	sjmp	00113$
      000D2F                       3916 00136$:
                           000D2F  3917 	C$lab2_func.c$637$3$141 ==.
                                   3918 ;	C:\Users\Tim\Documents\LITEC\Lab2\lab2-func.c:637: for (rep = 1; rep <= times[seq]; rep++)
      000D2F 05*1B            [12] 3919 	inc	_rep
      000D31 02r0Cr98         [24] 3920 	ljmp	00135$
      000D34                       3921 00113$:
                           000D34  3922 	C$lab2_func.c$659$3$141 ==.
                                   3923 ;	C:\Users\Tim\Documents\LITEC\Lab2\lab2-func.c:659: if (alive)
      000D34 E5*18            [12] 3924 	mov	a,_alive
      000D36 45*19            [12] 3925 	orl	a,(_alive + 1)
      000D38 60 0D            [24] 3926 	jz	00117$
                           000D3A  3927 	C$lab2_func.c$660$3$141 ==.
                                   3928 ;	C:\Users\Tim\Documents\LITEC\Lab2\lab2-func.c:660: score++;
      000D3A 05*02            [12] 3929 	inc	_score
      000D3C E4               [12] 3930 	clr	a
      000D3D B5*02 02         [24] 3931 	cjne	a,_score,00218$
      000D40 05*03            [12] 3932 	inc	(_score + 1)
      000D42                       3933 00218$:
                           000D42  3934 	C$lab2_func.c$635$2$140 ==.
                                   3935 ;	C:\Users\Tim\Documents\LITEC\Lab2\lab2-func.c:635: for (seq = 0; seq < i || seq == i; seq++)
      000D42 05*1A            [12] 3936 	inc	_seq
      000D44 02r0Cr84         [24] 3937 	ljmp	00139$
      000D47                       3938 00117$:
                           000D47  3939 	C$lab2_func.c$664$2$140 ==.
                                   3940 ;	C:\Users\Tim\Documents\LITEC\Lab2\lab2-func.c:664: if (!alive)
      000D47 E5*18            [12] 3941 	mov	a,_alive
      000D49 45*19            [12] 3942 	orl	a,(_alive + 1)
      000D4B 70 04            [24] 3943 	jnz	00122$
                           000D4D  3944 	C$lab2_func.c$666$3$146 ==.
                                   3945 ;	C:\Users\Tim\Documents\LITEC\Lab2\lab2-func.c:666: TR0 = 0;
      000D4D C2 8C            [12] 3946 	clr	_TR0
                           000D4F  3947 	C$lab2_func.c$667$3$146 ==.
                                   3948 ;	C:\Users\Tim\Documents\LITEC\Lab2\lab2-func.c:667: break;
      000D4F 80 3F            [24] 3949 	sjmp	00124$
      000D51                       3950 00122$:
                           000D51  3951 	C$lab2_func.c$671$3$147 ==.
                                   3952 ;	C:\Users\Tim\Documents\LITEC\Lab2\lab2-func.c:671: currCounts = Counts;
      000D51 85*00*26         [24] 3953 	mov	_currCounts,_Counts
      000D54 85*01*27         [24] 3954 	mov	(_currCounts + 1),(_Counts + 1)
                           000D57  3955 	C$lab2_func.c$672$3$147 ==.
                                   3956 ;	C:\Users\Tim\Documents\LITEC\Lab2\lab2-func.c:672: BILED2 = 0;
      000D57 C2 A1            [12] 3957 	clr	_BILED2
                           000D59  3958 	C$lab2_func.c$673$3$147 ==.
                                   3959 ;	C:\Users\Tim\Documents\LITEC\Lab2\lab2-func.c:673: while (Counts < currCounts + 337);//TTTTTTTTTTTTT
      000D59                       3960 00118$:
      000D59 74 51            [12] 3961 	mov	a,#0x51
      000D5B 25*26            [12] 3962 	add	a,_currCounts
      000D5D FE               [12] 3963 	mov	r6,a
      000D5E 74 01            [12] 3964 	mov	a,#0x01
      000D60 35*27            [12] 3965 	addc	a,(_currCounts + 1)
      000D62 FF               [12] 3966 	mov	r7,a
      000D63 C3               [12] 3967 	clr	c
      000D64 E5*00            [12] 3968 	mov	a,_Counts
      000D66 9E               [12] 3969 	subb	a,r6
      000D67 E5*01            [12] 3970 	mov	a,(_Counts + 1)
      000D69 9F               [12] 3971 	subb	a,r7
      000D6A 40 ED            [24] 3972 	jc	00118$
                           000D6C  3973 	C$lab2_func.c$674$3$147 ==.
                                   3974 ;	C:\Users\Tim\Documents\LITEC\Lab2\lab2-func.c:674: BILED2 = 1;
      000D6C D2 A1            [12] 3975 	setb	_BILED2
                           000D6E  3976 	C$lab2_func.c$675$3$147 ==.
                                   3977 ;	C:\Users\Tim\Documents\LITEC\Lab2\lab2-func.c:675: printf("correct \r\n");
      000D6E 74r02            [12] 3978 	mov	a,#___str_11
      000D70 C0 E0            [24] 3979 	push	acc
      000D72 74s02            [12] 3980 	mov	a,#(___str_11 >> 8)
      000D74 C0 E0            [24] 3981 	push	acc
      000D76 74 80            [12] 3982 	mov	a,#0x80
      000D78 C0 E0            [24] 3983 	push	acc
      000D7A 12r00r00         [24] 3984 	lcall	_printf
      000D7D 15 81            [12] 3985 	dec	sp
      000D7F 15 81            [12] 3986 	dec	sp
      000D81 15 81            [12] 3987 	dec	sp
                           000D83  3988 	C$lab2_func.c$678$2$140 ==.
                                   3989 ;	C:\Users\Tim\Documents\LITEC\Lab2\lab2-func.c:678: TR0 = 0;
      000D83 C2 8C            [12] 3990 	clr	_TR0
                           000D85  3991 	C$lab2_func.c$621$1$139 ==.
                                   3992 ;	C:\Users\Tim\Documents\LITEC\Lab2\lab2-func.c:621: for (i = 0; i < 8; i++) //8 sequence of the game
      000D85 05*05            [12] 3993 	inc	_i
      000D87 74 F8            [12] 3994 	mov	a,#0x100 - 0x08
      000D89 25*05            [12] 3995 	add	a,_i
      000D8B 40 03            [24] 3996 	jc	00221$
      000D8D 02r0Cr42         [24] 3997 	ljmp	00141$
      000D90                       3998 00221$:
      000D90                       3999 00124$:
                           000D90  4000 	C$lab2_func.c$681$1$139 ==.
                                   4001 ;	C:\Users\Tim\Documents\LITEC\Lab2\lab2-func.c:681: if (alive)
      000D90 E5*18            [12] 4002 	mov	a,_alive
      000D92 45*19            [12] 4003 	orl	a,(_alive + 1)
      000D94 60 15            [24] 4004 	jz	00143$
                           000D96  4005 	C$lab2_func.c$682$1$139 ==.
                                   4006 ;	C:\Users\Tim\Documents\LITEC\Lab2\lab2-func.c:682: printf("you successfully passed the game! \r\n");
      000D96 74r0D            [12] 4007 	mov	a,#___str_12
      000D98 C0 E0            [24] 4008 	push	acc
      000D9A 74s02            [12] 4009 	mov	a,#(___str_12 >> 8)
      000D9C C0 E0            [24] 4010 	push	acc
      000D9E 74 80            [12] 4011 	mov	a,#0x80
      000DA0 C0 E0            [24] 4012 	push	acc
      000DA2 12r00r00         [24] 4013 	lcall	_printf
      000DA5 15 81            [12] 4014 	dec	sp
      000DA7 15 81            [12] 4015 	dec	sp
      000DA9 15 81            [12] 4016 	dec	sp
      000DAB                       4017 00143$:
                           000DAB  4018 	C$lab2_func.c$684$1$139 ==.
                           000DAB  4019 	XG$game$0$0 ==.
      000DAB 22               [24] 4020 	ret
                                   4021 	.area CSEG    (CODE)
                                   4022 	.area CONST   (CODE)
                           000000  4023 Flab2_func$__str_0$0$0 == .
      000000                       4024 ___str_0:
      000000 0D                    4025 	.db 0x0d
      000001 20 53 74 61 72 74 20  4026 	.ascii " Start theGame!"
             74 68 65 47 61 6D 65
             21
      000010 0A                    4027 	.db 0x0a
      000011 00                    4028 	.db 0x00
                           000012  4029 Flab2_func$__str_1$0$0 == .
      000012                       4030 ___str_1:
      000012 53 77 69 74 63 68 20  4031 	.ascii "Switch to your desired mode: "
             74 6F 20 79 6F 75 72
             20 64 65 73 69 72 65
             64 20 6D 6F 64 65 3A
             20
      00002F 0D                    4032 	.db 0x0d
      000030 0A                    4033 	.db 0x0a
      000031 20                    4034 	.ascii " "
      000032 09                    4035 	.db 0x09
      000033 09                    4036 	.db 0x09
      000034 20 20 20 20 6D 6F 64  4037 	.ascii "    mode 0  SS0(off)  SS1("
             65 20 30 20 20 53 53
             30 28 6F 66 66 29 20
             20 53 53 31 28
      00004E 6F 66 66 29 20 20 20  4038 	.ascii "off)   "
      000055 0D                    4039 	.db 0x0d
      000056 0A                    4040 	.db 0x0a
      000057 20                    4041 	.ascii " "
      000058 09                    4042 	.db 0x09
      000059 09                    4043 	.db 0x09
      00005A 09                    4044 	.db 0x09
      00005B 6D 6F 64 65 20 31 20  4045 	.ascii "mode 1  SS0(off)  SS1(on)    "
             20 53 53 30 28 6F 66
             66 29 20 20 53 53 31
             28 6F 6E 29 20 20 20
             20
      000078 0D                    4046 	.db 0x0d
      000079 0A                    4047 	.db 0x0a
      00007A 20                    4048 	.ascii " "
      00007B 09                    4049 	.db 0x09
      00007C 09                    4050 	.db 0x09
      00007D 09                    4051 	.db 0x09
      00007E 6D 6F 64 65 20 32 20  4052 	.ascii "mode 2  SS0("
             20 53 53 30 28
      00008A 6F 6E 29 20 20 20 53  4053 	.ascii "on)   SS1(off)   "
             53 31 28 6F 66 66 29
             20 20 20
      00009B 0D                    4054 	.db 0x0d
      00009C 0A                    4055 	.db 0x0a
      00009D 20                    4056 	.ascii " "
      00009E 09                    4057 	.db 0x09
      00009F 09                    4058 	.db 0x09
      0000A0 09                    4059 	.db 0x09
      0000A1 6D 6F 64 65 20 33 20  4060 	.ascii "mode 3  SS0(on)   SS1(on)    "
             20 53 53 30 28 6F 6E
             29 20 20 20 53 53 31
             28 6F 6E 29 20 20 20
             20
      0000BE 0D                    4061 	.db 0x0d
      0000BF 0A                    4062 	.db 0x0a
      0000C0 00                    4063 	.db 0x00
                           0000C1  4064 Flab2_func$__str_2$0$0 == .
      0000C1                       4065 ___str_2:
      0000C1 50 72 65 73 73 20 61  4066 	.ascii "Press a key on your computer after the selection to start th"
             20 6B 65 79 20 6F 6E
             20 79 6F 75 72 20 63
             6F 6D 70 75 74 65 72
             20 61 66 74 65 72 20
             74 68 65 20 73 65 6C
             65 63 74 69 6F 6E 20
             74 6F 20 73 74 61 72
             74 20 74 68
      0000FD 65 20 67 61 6D 65 20  4067 	.ascii "e game "
      000104 0D                    4068 	.db 0x0d
      000105 0A                    4069 	.db 0x0a
      000106 00                    4070 	.db 0x00
                           000107  4071 Flab2_func$__str_3$0$0 == .
      000107                       4072 ___str_3:
      000107 59 6F 75 20 61 72 65  4073 	.ascii "You are currently in mode 0, GL! "
             20 63 75 72 72 65 6E
             74 6C 79 20 69 6E 20
             6D 6F 64 65 20 30 2C
             20 47 4C 21 20
      000128 0D                    4074 	.db 0x0d
      000129 0A                    4075 	.db 0x0a
      00012A 00                    4076 	.db 0x00
                           00012B  4077 Flab2_func$__str_4$0$0 == .
      00012B                       4078 ___str_4:
      00012B 59 6F 75 20 61 72 65  4079 	.ascii "You are currently in mode 1, CHA! CHA! "
             20 63 75 72 72 65 6E
             74 6C 79 20 69 6E 20
             6D 6F 64 65 20 31 2C
             20 43 48 41 21 20 43
             48 41 21 20
      000152 0D                    4080 	.db 0x0d
      000153 0A                    4081 	.db 0x0a
      000154 00                    4082 	.db 0x00
                           000155  4083 Flab2_func$__str_5$0$0 == .
      000155                       4084 ___str_5:
      000155 59 6F 75 20 61 72 65  4085 	.ascii "You are currently in mode 2, Emmmm... "
             20 63 75 72 72 65 6E
             74 6C 79 20 69 6E 20
             6D 6F 64 65 20 32 2C
             20 45 6D 6D 6D 6D 2E
             2E 2E 20
      00017B 0D                    4086 	.db 0x0d
      00017C 0A                    4087 	.db 0x0a
      00017D 00                    4088 	.db 0x00
                           00017E  4089 Flab2_func$__str_6$0$0 == .
      00017E                       4090 ___str_6:
      00017E 59 6F 75 20 61 72 65  4091 	.ascii "You are currently in mode 3, wanna be faster? "
             20 63 75 72 72 65 6E
             74 6C 79 20 69 6E 20
             6D 6F 64 65 20 33 2C
             20 77 61 6E 6E 61 20
             62 65 20 66 61 73 74
             65 72 3F 20
      0001AC 0D                    4092 	.db 0x0d
      0001AD 0A                    4093 	.db 0x0a
      0001AE 00                    4094 	.db 0x00
                           0001AF  4095 Flab2_func$__str_7$0$0 == .
      0001AF                       4096 ___str_7:
      0001AF 67 61 6D 65 20 72 75  4097 	.ascii "game rule"
             6C 65
      0001B8 0D                    4098 	.db 0x0d
      0001B9 0A                    4099 	.db 0x0a
      0001BA 00                    4100 	.db 0x00
                           0001BB  4101 Flab2_func$__str_8$0$0 == .
      0001BB                       4102 ___str_8:
      0001BB 25 75 7C 25 75 20     4103 	.ascii "%u|%u "
      0001C1 0D                    4104 	.db 0x0d
      0001C2 0A                    4105 	.db 0x0a
      0001C3 00                    4106 	.db 0x00
                           0001C4  4107 Flab2_func$__str_9$0$0 == .
      0001C4                       4108 ___str_9:
      0001C4 54 49 4D 45 20 4F 55  4109 	.ascii "TIME OUT "
             54 20
      0001CD 0D                    4110 	.db 0x0d
      0001CE 0A                    4111 	.db 0x0a
      0001CF 00                    4112 	.db 0x00
                           0001D0  4113 Flab2_func$__str_10$0$0 == .
      0001D0                       4114 ___str_10:
      0001D0 47 41 4D 45 20 4F 56  4115 	.ascii "GAME OVER, you pressed %u,and your score is %u "
             45 52 2C 20 79 6F 75
             20 70 72 65 73 73 65
             64 20 25 75 2C 61 6E
             64 20 79 6F 75 72 20
             73 63 6F 72 65 20 69
             73 20 25 75 20
      0001FF 0D                    4116 	.db 0x0d
      000200 0A                    4117 	.db 0x0a
      000201 00                    4118 	.db 0x00
                           000202  4119 Flab2_func$__str_11$0$0 == .
      000202                       4120 ___str_11:
      000202 63 6F 72 72 65 63 74  4121 	.ascii "correct "
             20
      00020A 0D                    4122 	.db 0x0d
      00020B 0A                    4123 	.db 0x0a
      00020C 00                    4124 	.db 0x00
                           00020D  4125 Flab2_func$__str_12$0$0 == .
      00020D                       4126 ___str_12:
      00020D 79 6F 75 20 73 75 63  4127 	.ascii "you successfully passed the game! "
             63 65 73 73 66 75 6C
             6C 79 20 70 61 73 73
             65 64 20 74 68 65 20
             67 61 6D 65 21 20
      00022F 0D                    4128 	.db 0x0d
      000230 0A                    4129 	.db 0x0a
      000231 00                    4130 	.db 0x00
                           000232  4131 Flab2_func$__str_13$0$0 == .
      000232                       4132 ___str_13:
      000232 0D                    4133 	.db 0x0d
      000233 20 52 75 6C 65 3A 20  4134 	.ascii " Rule: "
      00023A 0A                    4135 	.db 0x0a
      00023B 00                    4136 	.db 0x00
                           00023C  4137 Flab2_func$__str_14$0$0 == .
      00023C                       4138 ___str_14:
      00023C 0D                    4139 	.db 0x0d
      00023D 20 50 6C 61 79 65 72  4140 	.ascii " Player 1 use pushbutton and potentiometer to create a sequ"
             20 31 20 75 73 65 20
             70 75 73 68 62 75 74
             74 6F 6E 20 61 6E 64
             20 70 6F 74 65 6E 74
             69 6F 6D 65 74 65 72
             20 74 6F 20 63 72 65
             61 74 65 20 61 20 73
             65 71 75
      000278 65 6E 63 65 20        4141 	.ascii "ence "
      00027D 0A                    4142 	.db 0x0a
      00027E 00                    4143 	.db 0x00
                           00027F  4144 Flab2_func$__str_15$0$0 == .
      00027F                       4145 ___str_15:
      00027F 0D                    4146 	.db 0x0d
      000280 20 70 75 73 68 62 75  4147 	.ascii " pushbutton indicate the LED and use potentiometer to adjus"
             74 74 6F 6E 20 69 6E
             64 69 63 61 74 65 20
             74 68 65 20 4C 45 44
             20 61 6E 64 20 75 73
             65 20 70 6F 74 65 6E
             74 69 6F 6D 65 74 65
             72 20 74 6F 20 61 64
             6A 75 73
      0002BB 74 20 62 6C 69 6E 6B  4148 	.ascii "t blinks "
             73 20
      0002C4 0A                    4149 	.db 0x0a
      0002C5 00                    4150 	.db 0x00
                           0002C6  4151 Flab2_func$__str_16$0$0 == .
      0002C6                       4152 ___str_16:
      0002C6 0D                    4153 	.db 0x0d
      0002C7 20 74 68 65 6E 20 70  4154 	.ascii " then player2 play the game with preprogrammed sequence "
             6C 61 79 65 72 32 20
             70 6C 61 79 20 74 68
             65 20 67 61 6D 65 20
             77 69 74 68 20 70 72
             65 70 72 6F 67 72 61
             6D 6D 65 64 20 73 65
             71 75 65 6E 63 65 20
      0002FF 0A                    4155 	.db 0x0a
      000300 00                    4156 	.db 0x00
                           000301  4157 Flab2_func$__str_17$0$0 == .
      000301                       4158 ___str_17:
      000301 0D                    4159 	.db 0x0d
      000302 20 50 75 73 68 20 61  4160 	.ascii " Push any button to start modification! "
             6E 79 20 62 75 74 74
             6F 6E 20 74 6F 20 73
             74 61 72 74 20 6D 6F
             64 69 66 69 63 61 74
             69 6F 6E 21 20
      00032A 0A                    4161 	.db 0x0a
      00032B 00                    4162 	.db 0x00
                           00032C  4163 Flab2_func$__str_18$0$0 == .
      00032C                       4164 ___str_18:
      00032C 0D                    4165 	.db 0x0d
      00032D 20 47 61 6D 65 20 73  4166 	.ascii " Game start in 3 seconds "
             74 61 72 74 20 69 6E
             20 33 20 73 65 63 6F
             6E 64 73 20
      000346 0A                    4167 	.db 0x0a
      000347 00                    4168 	.db 0x00
                           000348  4169 Flab2_func$__str_19$0$0 == .
      000348                       4170 ___str_19:
      000348 0D                    4171 	.db 0x0d
      000349 20 67 61 6D 65 20 73  4172 	.ascii " game start "
             74 61 72 74 20
      000355 0A                    4173 	.db 0x0a
      000356 00                    4174 	.db 0x00
                           000357  4175 Flab2_func$__str_20$0$0 == .
      000357                       4176 ___str_20:
      000357 0D                    4177 	.db 0x0d
      000358 20 50 6C 61 79 65 72  4178 	.ascii " Player1's turn "
             31 27 73 20 74 75 72
             6E 20
      000368 0A                    4179 	.db 0x0a
      000369 00                    4180 	.db 0x00
                           00036A  4181 Flab2_func$__str_21$0$0 == .
      00036A                       4182 ___str_21:
      00036A 0D                    4183 	.db 0x0d
      00036B 20 53 65 71 75 65 6E  4184 	.ascii " Sequence %u "
             63 65 20 25 75 20
      000378 0A                    4185 	.db 0x0a
      000379 00                    4186 	.db 0x00
                           00037A  4187 Flab2_func$__str_22$0$0 == .
      00037A                       4188 ___str_22:
      00037A 0D                    4189 	.db 0x0d
      00037B 20 4C 45 44 20 25 75  4190 	.ascii " LED %u "
             20
      000383 0A                    4191 	.db 0x0a
      000384 00                    4192 	.db 0x00
                           000385  4193 Flab2_func$__str_23$0$0 == .
      000385                       4194 ___str_23:
      000385 0D                    4195 	.db 0x0d
      000386 20 6E 65 78 74 20 73  4196 	.ascii " next sequence start in 2 seconds"
             65 71 75 65 6E 63 65
             20 73 74 61 72 74 20
             69 6E 20 32 20 73 65
             63 6F 6E 64 73
      0003A7 0A                    4197 	.db 0x0a
      0003A8 00                    4198 	.db 0x00
                           0003A9  4199 Flab2_func$__str_24$0$0 == .
      0003A9                       4200 ___str_24:
      0003A9 0D                    4201 	.db 0x0d
      0003AA 20 50 6C 61 79 65 72  4202 	.ascii " Player2's turn start in 10 seconds "
             32 27 73 20 74 75 72
             6E 20 73 74 61 72 74
             20 69 6E 20 31 30 20
             73 65 63 6F 6E 64 73
             20
      0003CE 0A                    4203 	.db 0x0a
      0003CF 00                    4204 	.db 0x00
                           0003D0  4205 Flab2_func$__str_25$0$0 == .
      0003D0                       4206 ___str_25:
      0003D0 0D                    4207 	.db 0x0d
      0003D1 53 65 74 20 62 6C 69  4208 	.ascii "Set blink rate, then press PB0"
             6E 6B 20 72 61 74 65
             2C 20 74 68 65 6E 20
             70 72 65 73 73 20 50
             42 30
      0003EF 0A                    4209 	.db 0x0a
      0003F0 0D                    4210 	.db 0x0d
      0003F1 00                    4211 	.db 0x00
                           0003F2  4212 Flab2_func$__str_26$0$0 == .
      0003F2                       4213 ___str_26:
      0003F2 0D                    4214 	.db 0x0d
      0003F3 42 6C 69 6E 6B 20 52  4215 	.ascii "Blink Rate: %d"
             61 74 65 3A 20 25 64
      000401 0A                    4216 	.db 0x0a
      000402 0D                    4217 	.db 0x0d
      000403 00                    4218 	.db 0x00
                           000404  4219 Flab2_func$__str_27$0$0 == .
      000404                       4220 ___str_27:
      000404 0D                    4221 	.db 0x0d
      000405 53 65 74 20 44 65 6C  4222 	.ascii "Set Delay, then press PB0"
             61 79 2C 20 74 68 65
             6E 20 70 72 65 73 73
             20 50 42 30
      00041E 0A                    4223 	.db 0x0a
      00041F 0D                    4224 	.db 0x0d
      000420 00                    4225 	.db 0x00
                           000421  4226 Flab2_func$__str_28$0$0 == .
      000421                       4227 ___str_28:
      000421 44 65 6C 61 79 3A 20  4228 	.ascii "Delay: %u "
             25 75 20
      00042B 0A                    4229 	.db 0x0a
      00042C 0D                    4230 	.db 0x0d
      00042D 00                    4231 	.db 0x00
                           00042E  4232 Flab2_func$__str_29$0$0 == .
      00042E                       4233 ___str_29:
      00042E 0D                    4234 	.db 0x0d
      00042F 42 65 67 69 6E 6E 69  4235 	.ascii "Beginning the Game"
             6E 67 20 74 68 65 20
             47 61 6D 65
      000441 0A                    4236 	.db 0x0a
      000442 0D                    4237 	.db 0x0d
      000443 00                    4238 	.db 0x00
                           000444  4239 Flab2_func$__str_30$0$0 == .
      000444                       4240 ___str_30:
      000444 73 63 6F 72 65 3A 20  4241 	.ascii "score: %d"
             25 64
      00044D 0A                    4242 	.db 0x0a
      00044E 00                    4243 	.db 0x00
                           00044F  4244 Flab2_func$__str_31$0$0 == .
      00044F                       4245 ___str_31:
      00044F 50 42 30 20           4246 	.ascii "PB0 "
      000453 0D                    4247 	.db 0x0d
      000454 0A                    4248 	.db 0x0a
      000455 00                    4249 	.db 0x00
                           000456  4250 Flab2_func$__str_32$0$0 == .
      000456                       4251 ___str_32:
      000456 50 42 31 20           4252 	.ascii "PB1 "
      00045A 0D                    4253 	.db 0x0d
      00045B 0A                    4254 	.db 0x0a
      00045C 00                    4255 	.db 0x00
                           00045D  4256 Flab2_func$__str_33$0$0 == .
      00045D                       4257 ___str_33:
      00045D 50 42 32 20           4258 	.ascii "PB2 "
      000461 0D                    4259 	.db 0x0d
      000462 0A                    4260 	.db 0x0a
      000463 00                    4261 	.db 0x00
                           000464  4262 Flab2_func$__str_34$0$0 == .
      000464                       4263 ___str_34:
      000464 50 42 33 20           4264 	.ascii "PB3 "
      000468 0D                    4265 	.db 0x0d
      000469 0A                    4266 	.db 0x0a
      00046A 00                    4267 	.db 0x00
                                   4268 	.area XINIT   (CODE)
                                   4269 	.area CABS    (ABS,CODE)
